(lp1
V243901868839948288
p2
aV250329715217399808
p3
aV243182172377321472
p4
aV222515267895431169
p5
aV258554531439329280
p6
aV260558951584784384
p7
aV265626601922916353
p8
aV226394877460615168
p9
aV250774139458174977
p10
aV236536025072148481
p11
aV257625992225517568
p12
aV240787551982600193
p13
aV226738055434891265
p14
aV223498005905551360
p15
aV253556900787023872
p16
aV232885063807811585
p17
aV261474412937756672
p18
aV253691487617941507
p19
aV264472727937757184
p20
aV260565167513944064
p21
aV266013891383943168
p22
aV264005302125469696
p23
aV258396561376149506
p24
aV253959386177871872
p25
aV241227081453817857
p26
aV241373080998522880
p27
aV258742968930951168
p28
aV258397089854287874
p29
aV255450066997882883
p30
aV257909715894407168
p31
aV253669664620703744
p32
aV256587901985488897
p33
aV258388957094608896
p34
aV253677503795843073
p35
aV222501917438390272
p36
aV218093733307097088
p37
aV256840466170007553
p38
aV263072379847196672
p39
aV265670461751427072
p40
aV253697263149408256
p41
aV238667117401092096
p42
aV253678430716059648
p43
aV231605234844184576
p44
aV254300324393783297
p45
aV266034032448528385
p46
aV236248757191200768
p47
aV243172680663175168
p48
aV258378794270851072
p49
aV244593731829895169
p50
aV265591608836235266
p51
aV258239736324444160
p52
aV265629873509392384
p53
aV253676551705620480
p54
aV247079511278104576
p55
aV265905397322362881
p56
aV228297162105163776
p57
aV262659203150258176
p58
aV255781274424311809
p59
aV253675914150412288
p60
aV253670063108919297
p61
aV261101967139540994
p62
aV222515364364419072
p63
aV266011169289035776
p64
aV253663750685618177
p65
aV243908269326876673
p66
aV245298148438835200
p67
aV258390328644628480
p68
aV266027636130738176
p69
aV243189134938738688
p70
aV241348414313480193
p71
aV266039979959017472
p72
aV221245882761363457
p73
aV223069939467173888
p74
aV250024541835890689
p75
aV240660493927321600
p76
aV241475703017713664
p77
aV260080041751355392
p78
aV260951450333618176
p79
aV266011798417838080
p80
aV260691399295528960
p81
aV266032455377637376
p82
aV260561979872247808
p83
aV229019677127491585
p84
aV266041234034941952
p85
aV246034492047896577
p86
aV243962409415491584
p87
aV257657277513871361
p88
aV260563452072980481
p89
aV266041527669780480
p90
aV220566975942897666
p91
aV223253784200101888
p92
aV260555143127375872
p93
aV261324151984373761
p94
aV241279787098849280
p95
aV231949570425376768
p96
aV237697234928533506
p97
aV264180598862659584
p98
aV265151932543410177
p99
aV258386968986140672
p100
aV228361053963165696
p101
aV266013555827019776
p102
aV258391914078957569
p103
aV266041770931019776
p104
aV266013505512148992
p105
aV253933956129517568
p106
aV258775462191456256
p107
aV222465993224626177
p108
aV253684655079952384
p109
aV260548109300543488
p110
aV250394320060952577
p111
aV224349621621760000
p112
aV265975110832361472
p113
aV222523899785641984
p114
aV232862141907075072
p115
aV263273421234896898
p116
aV258388533469908992
p117
aV261999950844530688
p118
aV257946101502582785
p119
aV265586965779456000
p120
aV241237063893139456
p121
aV259473562170187776
p122
aV260554182623363072
p123
aV265304127054151680
p124
aV264143420560388096
p125
aV232198506583031808
p126
aV266030651822702592
p127
aV258569832260304896
p128
aV256584533959389185
p129
aV246594301600100353
p130
aV244210636693843968
p131
aV265322275836944385
p132
aV232951447065608192
p133
aV266004282241851393
p134
aV266036523852509184
p135
aV252603166389047297
p136
aV261406423261511680
p137
aV264409448477519872
p138
aV250153109848985600
p139
aV240683189297889281
p140
aV253672399315296257
p141
aV263692574798274561
p142
aV257941798138298370
p143
aV265994866033569793
p144
aV259102504665624576
p145
aV235500535283863553
p146
aV266038625198817281
p147
aV238487848616095744
p148
aV265967535940304896
p149
aV241560662847926272
p150
aV265822513697792000
p151
aV255714106814914560
p152
aV243215609377222657
p153
aV263659976655003648
p154
aV251129153716367360
p155
aV224699074245435392
p156
aV261349041005268994
p157
aV245714928038719488
p158
aV253987932627681280
p159
aV237657292571549698
p160
aV243534464569987072
p161
aV253681031209689088
p162
aV251414148305522689
p163
aV221258922869276673
p164
aV218484374000246784
p165
aV219151301878087680
p166
aV252121228259753985
p167
aV258442904236867584
p168
aV253680313962749952
p169
aV253696495595966465
p170
aV227775818519171072
p171
aV253666758005772290
p172
aV266037987660402688
p173
aV256882203726864384
p174
aV239414567539728384
p175
aV265850632286638081
p176
aV258399937786675201
p177
aV241359768265060352
p178
aV265572730286522368
p179
aV235826302681239552
p180
aV245960789750599680
p181
aV266034846139285504
p182
aV265186959184519170
p183
aV238323528397627392
p184
aV251378312172167169
p185
aV264115037667475457
p186
aV252810767643049985
p187
aV243890955248353281
p188
aV233309749679095808
p189
aV265840935059996672
p190
aV246616938283937796
p191
aV265912976433872896
p192
aV265999932719255552
p193
aV266032560222658560
p194
aV265908484309147648
p195
aV243184059818323970
p196
aV258391901504405504
p197
aV253163277926940672
p198
aV253683023495712769
p199
aV265979842024062977
p200
aV253677268931575808
p201
aV252432697287389186
p202
aV261852269392314369
p203
aV234311550792499201
p204
aV265900351591419904
p205
aV264458391815081984
p206
aV247677681947271168
p207
aV227868189667766272
p208
aV266011605475676161
p209
aV254065099407495168
p210
aV245155189772935169
p211
aV218167947313688576
p212
aV258374620946788352
p213
aV266033894002937856
p214
aV263123210608996352
p215
aV221228090532179968
p216
aV253670411236147200
p217
aV266040365818187776
p218
aV259413097087901696
p219
aV243567226261749760
p220
aV266015984341635074
p221
aV219078111290073088
p222
aV254035554742714369
p223
aV253675201122926593
p224
aV266035160686948352
p225
aV229817832211361792
p226
aV264904850293272576
p227
aV266032665105412097
p228
aV265992261374984193
p229
aV260569361813757952
p230
aV266030563725557764
p231
aV249674636218990592
p232
aV254175959085875200
p233
aV253674597159948288
p234
aV252245656478031872
p235
aV241338289246851073
p236
aV261066609140064256
p237
aV245954330505654272
p238
aV258374314754207746
p239
aV217297834750390273
p240
aV258177304113577985
p241
aV265969670832656384
p242
aV258671284060291074
p243
aV265617366065479680
p244
aV258652871086731265
p245
aV221286840165089281
p246
aV243196080714567680
p247
aV235355118789328897
p248
aV260562638348623873
p249
aV243400573985112064
p250
aV244459874820448257
p251
aV226307984081448961
p252
aV266031524229558273
p253
aV266038918795886593
p254
aV253677596074713089
p255
aV258390186017296384
p256
aV248920823304445952
p257
aV221257475851157504
p258
aV232891476902805504
p259
aV265610655191674881
p260
aV265277279326834688
p261
aV258152083755261952
p262
aV246212074680762368
p263
aV264177763492184064
p264
aV232694176825876480
p265
aV265992085176467456
p266
aV263398788985651200
p267
aV260235117748953088
p268
aV265617173140103168
p269
aV265913983062638593
p270
aV251372779880988673
p271
aV248834269672251392
p272
aV265096433517084672
p273
aV260559467458998272
p274
aV265884056691027968
p275
aV219963273007742976
p276
aV258397828022411264
p277
aV255780506845712384
p278
aV238182750769803265
p279
aV234393931088015360
p280
aV218365566128357376
p281
aV253678493643206658
p282
aV261122380804534272
p283
aV262993195581968386
p284
aV252764139561316352
p285
aV244530846655201280
p286
aV266032329556885504
p287
aV261935744438906881
p288
aV237611734016327680
p289
aV266038650364633089
p290
aV247304598614863872
p291
aV241068725527273472
p292
aV266039812170067968
p293
aV265608096670425089
p294
aV262718766482333697
p295
aV243906818097700864
p296
aV258389804339834880
p297
aV251174280266649600
p298
aV239718713266409472
p299
aV261869822579716096
p300
aV263721867821584384
p301
aV243240104129343488
p302
aV253688601940983808
p303
aV266033877234110465
p304
aV232519983169679360
p305
aV254673051227127811
p306
aV263370888471273472
p307
aV259019625206001664
p308
aV260489321918889986
p309
aV263238595920420864
p310
aV265799273025769473
p311
aV266030475653566464
p312
aV260554383983534080
p313
aV256986276971044864
p314
aV221191302316953600
p315
aV231799594688864257
p316
aV239404425683279873
p317
aV261531719713292290
p318
aV263086015516921856
p319
aV266027208286552065
p320
aV252254779106025472
p321
aV266002352836841472
p322
aV244587742397362177
p323
aV242735189602734081
p324
aV260082898047234048
p325
aV262808482632302592
p326
aV222950108185100289
p327
aV254261619331317760
p328
aV258790037414612992
p329
aV265989258228150273
p330
aV266011366429716482
p331
aV262260903641247744
p332
aV265828234715877376
p333
aV252809098310062080
p334
aV232514547385241600
p335
aV258376101531881473
p336
aV257941173182820352
p337
aV256581270803476480
p338
aV243433813848494081
p339
aV253698714374402048
p340
aV265027529486766080
p341
aV253663993955237888
p342
aV248289261814689793
p343
aV258379834479243266
p344
aV250441841546260480
p345
aV266040651039248384
p346
aV260564995547463680
p347
aV265981398119231488
p348
aV229962216911290369
p349
aV264117386507063296
p350
aV218370637037703168
p351
aV243177231491428352
p352
aV258392740356845570
p353
aV245617435619753984
p354
aV253691860898422784
p355
aV265979057668243457
p356
aV244027966382821376
p357
aV260595190346153984
p358
aV243010734391427073
p359
aV261843201315446785
p360
aV250621651341955072
p361
aV266034011443429379
p362
aV253733611000446976
p363
aV261670744134668289
p364
aV265670948320075776
p365
aV241965077635416064
p366
aV238459541258395649
p367
aV241382627226025984
p368
aV231144297607622656
p369
aV265987739915272193
p370
aV255406907601350656
p371
aV262896940491096064
p372
aV260564362199171072
p373
aV237252718396325889
p374
aV266033667506311168
p375
aV252933170029273088
p376
aV243527854363639808
p377
aV265430119743643648
p378
aV263004843185164289
p379
aV258665802134331392
p380
aV258391276544733184
p381
aV256805779275935744
p382
aV257810256363659265
p383
aV266032274997407746
p384
aV262631503954071552
p385
aV265564933083779072
p386
aV243901923349127168
p387
aV265967653372452864
p388
aV255095937695891456
p389
aV231218834609168384
p390
aV259321539609116672
p391
aV262643315122507776
p392
aV220595660808912896
p393
aV237679295894544384
p394
aV261137580958040064
p395
aV262907677900955649
p396
aV259471234335666176
p397
aV265996325622005761
p398
aV220484276850929665
p399
aV265834312253980674
p400
aV246494946956296193
p401
aV247674100024238080
p402
aV251634827395223552
p403
aV260591402885447680
p404
aV265992043237634049
p405
aV246039168709427201
p406
aV243119266218536961
p407
aV260556489494757376
p408
aV265998972244594689
p409
aV260553100530704386
p410
aV265993800676147200
p411
aV258540698612150272
p412
aV253694713033535488
p413
aV265588941258883074
p414
aV248833225282158593
p415
aV264968473703231488
p416
aV242666558231560192
p417
aV241371285836410883
p418
aV265996363383312384
p419
aV258561489798053888
p420
aV229214896804462592
p421
aV260566270628466688
p422
aV222522725367947264
p423
aV240212504498806785
p424
aV258376965579472896
p425
aV248066728804896769
p426
aV265469177110855680
p427
aV241886358937939968
p428
aV242825409069211648
p429
aV248109024170622977
p430
aV265976385909182465
p431
aV241377208181067776
p432
aV261481539072843776
p433
aV253564744135487489
p434
aV262605264405008384
p435
aV264037275288080384
p436
aV218417202217500672
p437
aV253682314670915585
p438
aV236183854522703872
p439
aV249260238979620864
p440
aV265981192573181952
p441
aV266035349434818561
p442
aV255854473396760576
p443
aV231492068319576064
p444
aV253679672267776001
p445
aV234383126581874689
p446
aV243418227819044864
p447
aV243213977797140480
p448
aV220547422114422786
p449
aV240128882647371776
p450
aV258301564563898368
p451
aV265808626344665088
p452
aV227861877257011200
p453
aV266033852089249792
p454
aV253689239458414592
p455
aV260561224872386561
p456
aV266004915573379072
p457
aV261852072268427264
p458
aV266028504343248897
p459
aV260551540220243971
p460
aV266029452235001856
p461
aV241398825644867584
p462
aV258391071019638785
p463
aV259331329097879552
p464
aV265842747016097792
p465
aV265785255691161600
p466
aV243172127036026880
p467
aV265121813250596864
p468
aV258396171280719873
p469
aV226316875989135360
p470
aV258382728528031745
p471
aV262052035699032065
p472
aV243377106883588096
p473
aV243750534153134080
p474
aV258404463449092096
p475
aV261156086223106048
p476
aV262387563271188481
p477
aV265814745821618176
p478
aV234319985546256384
p479
aV245204439277907968
p480
aV252506126946533377
p481
aV245615573361385472
p482
aV251785822351810561
p483
aV266024171606261760
p484
aV249169969164738561
p485
aV231539078103982080
p486
aV253589117227634688
p487
aV243141110170533888
p488
aV260625976537526272
p489
aV245832238514708480
p490
aV243844960514875393
p491
aV255865533793177601
p492
aV236881916748521473
p493
aV250601581584736257
p494
aV254382650167537666
p495
aV243900488876187649
p496
aV253299404054859777
p497
aV263742247961509888
p498
aV265989686047154176
p499
aV265880239878598656
p500
aV260045317112750080
p501
aV260563976339992576
p502
aV258386406957776896
p503
aV236255963009650688
p504
aV243159833522610176
p505
aV265593970254573568
p506
aV224351924277886977
p507
aV263800913687363585
p508
aV265233390108807168
p509
aV248556531254165504
p510
aV249708501046280192
p511
aV236490726572171264
p512
aV249676699824951296
p513
aV261862482547728384
p514
aV260825457648336896
p515
aV265507362062864386
p516
aV265851970294779904
p517
aV265961747784015872
p518
aV253678871117971456
p519
aV226479040381460480
p520
aV262976510661636096
p521
aV265149185278504960
p522
aV266033621381574660
p523
aV256610601567141889
p524
aV243184584106323971
p525
aV251743073992835072
p526
aV263792046916112384
p527
aV258386423714045952
p528
aV249078105543675904
p529
aV243425790161719296
p530
aV258410704569253888
p531
aV250659026797477888
p532
aV242852269429755904
p533
aV265610269332496385
p534
aV237011659145740289
p535
aV223494671450636288
p536
aV240250949468303361
p537
aV265651344118018051
p538
aV223928836432216066
p539
aV266013832655282176
p540
aV264427261661417472
p541
aV257892720591372288
p542
aV262202846097846272
p543
aV255490579792801792
p544
aV266015254520164352
p545
aV251339439379476482
p546
aV265618741818187776
p547
aV227335068484501504
p548
aV244621028364533761
p549
aV260549510193897472
p550
aV241669064626409474
p551
aV240483477517107200
p552
aV253691646997311488
p553
aV258390022439452673
p554
aV249181188944695297
p555
aV257171648451596288
p556
aV245140597801893888
p557
aV243909515026771968
p558
aV242140777025769472
p559
aV263811126817603586
p560
aV243727373206441984
p561
aV243036084773203969
p562
aV265932328952549376
p563
aV258391100392349698
p564
aV243907866690465793
p565
aV262771803460599808
p566
aV223024880063483905
p567
aV263096539046612992
p568
aV261807641985171456
p569
aV261479240602644480
p570
aV261569527152775168
p571
aV266025366999662592
p572
aV253681182208823296
p573
aV231893010248503296
p574
aV243088308048109568
p575
aV254103217242243073
p576
aV265988905894023168
p577
aV254422689014497280
p578
aV266033600397467649
p579
aV251158857806663680
p580
aV231003750695858179
p581
aV254853985092108289
p582
aV243331871298183168
p583
aV255525790941327360
p584
aV266001614660325377
p585
aV243895803859570688
p586
aV266012540818059264
p587
aV253673334657667072
p588
aV260559027078049792
p589
aV251214348427591681
p590
aV243916288819339264
p591
aV243900304347787264
p592
aV258387187077378049
p593
aV258543361991000064
p594
aV265303317545115648
p595
aV260528412819587072
p596
aV243274732311568384
p597
aV258424700932329472
p598
aV253718956098084864
p599
aV258393797296287744
p600
aV248050371036057600
p601
aV252432160408100864
p602
aV260481105264791552
p603
aV260563334607286274
p604
aV218352005943541760
p605
aV244058551247572992
p606
aV251463221674921984
p607
aV243167676879474689
p608
aV266009634169561088
p609
aV252502222078869504
p610
aV263473854419185665
p611
aV260091374764965888
p612
aV265996669580107776
p613
aV254240299684077568
p614
aV265681970955169793
p615
aV257709618267041792
p616
aV243897406075334656
p617
aV243723388621828096
p618
aV265963081568505856
p619
aV264930401997438976
p620
aV266029259292819457
p621
aV258411283370627072
p622
aV247756635529940992
p623
aV226625278988918784
p624
aV241326570361475072
p625
aV260977656357605376
p626
aV266035160703713281
p627
aV265951169740943360
p628
aV218530792350031873
p629
aV259384160567832576
p630
aV265913257435471872
p631
aV232655266250895360
p632
aV253685598802546688
p633
aV253676039992139777
p634
aV243209074643193857
p635
aV260560574755258368
p636
aV266016877736759296
p637
aV253698106208694273
p638
aV245131038966308866
p639
aV265799654707449856
p640
aV250687078298435586
p641
aV243925411443118080
p642
aV265818587825057792
p643
aV242986864632557568
p644
aV243179177665232896
p645
aV241361857020043265
p646
aV265961647120719872
p647
aV258391553364590592
p648
aV243184600887738370
p649
aV243382240673931264
p650
aV260557693264216064
p651
aV236435735069208576
p652
aV253667261313843201
p653
aV258386281137061888
p654
aV266031671017603073
p655
aV264067184886685696
p656
aV266028856660611072
p657
aV266018710630854657
p658
aV265971864453648384
p659
aV253679194079379458
p660
aV265884077691924480
p661
aV242999158137552896
p662
aV255454114513825793
p663
aV255880297722302464
p664
aV256570982158983169
p665
aV240109370736799744
p666
aV242654667362934785
p667
aV265530078396547073
p668
aV261073919832907776
p669
aV220419315470577664
p670
aV253683879129530368
p671
aV258394040599449600
p672
aV254065946669502464
p673
aV256589378388910080
p674
aV266018853258145792
p675
aV248195477156265984
p676
aV243899557740695554
p677
aV236530362753376256
p678
aV257566491803795456
p679
aV244902172582633473
p680
aV227586017882939392
p681
aV232519551181524992
p682
aV244476199068381185
p683
aV246265904403447809
p684
aV266009025978695681
p685
aV265995247690072064
p686
aV221442809545236482
p687
aV262748277601079297
p688
aV227504929403723776
p689
aV261218170327687168
p690
aV231258273628712960
p691
aV265991212798992384
p692
aV265975341531668480
p693
aV262256654836449280
p694
aV255633358061703168
p695
aV261154672763604993
p696
aV253686425080446977
p697
aV262304251773075456
p698
aV266037677286117376
p699
aV244449519109038080
p700
aV260592006869422080
p701
aV243418852761956352
p702
aV261150537163108353
p703
aV243548389676040194
p704
aV246997273572155392
p705
aV265661536301883393
p706
aV247114118480408576
p707
aV258327774790574080
p708
aV258203216540467200
p709
aV266007679636480000
p710
aV266008942084243456
p711
aV265991598666567681
p712
aV253681752642560001
p713
aV265990189380431874
p714
aV263960557294583808
p715
aV258766142447968257
p716
aV247755809243660288
p717
aV230388530189328385
p718
aV227888922116636673
p719
aV266038541300154368
p720
aV266016777077673985
p721
aV240529551929786368
p722
aV244972259402469376
p723
aV258376827167440896
p724
aV265917829235228673
p725
aV254025920447401985
p726
aV258388478931378176
p727
aV266033495573426177
p728
aV265947558482944001
p729
aV265844076581109761
p730
aV226935116415512577
p731
aV243716593840963585
p732
aV256588954747408384
p733
aV259341680648531968
p734
aV249362357682307073
p735
aV242750825968050176
p736
aV258565575041761280
p737
aV227761880834396161
p738
aV265677566935961600
p739
aV245681616855379968
p740
aV245148537606770688
p741
aV265853459264327682
p742
aV243184395371044864
p743
aV242037236462387200
p744
aV265524558717665280
p745
aV243163075744780288
p746
aV256578364129804290
p747
aV266019377529360384
p748
aV260594368279347200
p749
aV233179503944429568
p750
aV265862674154405889
p751
aV255840112120840192
p752
aV252506886149128193
p753
aV264189616616255488
p754
aV260887327822462977
p755
aV265580091298430976
p756
aV241869648826621952
p757
aV258152566133768193
p758
aV226349549642477568
p759
aV253693182091620352
p760
aV266022548410617857
p761
aV258061298045177856
p762
aV258394720059928576
p763
aV250605381619957760
p764
aV243896613377019905
p765
aV258390739669614592
p766
aV262365853545291776
p767
aV261967923155972096
p768
aV265831544000757760
p769
aV244615462518935552
p770
aV243908663608238081
p771
aV266027757740363776
p772
aV243910014178299905
p773
aV237758480134574081
p774
aV260572398515011584
p775
aV246696005087682560
p776
aV258541931737542657
p777
aV224706414285824002
p778
aV264099120287997952
p779
aV265987576329035776
p780
aV265330685378707456
p781
aV236862035751739392
p782
aV260174350651633664
p783
aV247836763492610048
p784
aV233698934944591872
p785
aV244184640427020288
p786
aV231861963980939266
p787
aV258392320930635776
p788
aV266001358799372288
p789
aV265851508904579073
p790
aV238652693181243392
p791
aV259657595617419264
p792
aV253685963707019265
p793
aV253669178119188480
p794
aV263409752887918592
p795
aV253668397961846784
p796
aV264053326885310465
p797
aV253697598702120960
p798
aV265110220177567745
p799
aV253688971006201857
p800
aV243901919171575808
p801
aV253677235343597568
p802
aV259438132892692480
p803
aV243551388586631168
p804
aV265203287588999168
p805
aV263705426158292993
p806
aV261594248384757761
p807
aV226399633839116288
p808
aV221276824162930688
p809
aV250710063084359680
p810
aV244878600581562368
p811
aV265919330787659776
p812
aV260567717663358976
p813
aV264481724694671360
p814
aV241553624805830656
p815
aV261923463495835648
p816
aV265850493887205376
p817
aV237604071052288000
p818
aV265359277986811904
p819
aV243182193369808898
p820
aV265929107718680576
p821
aV226518542340739072
p822
aV261966346093481984
p823
aV253663478047444992
p824
aV265599456408395777
p825
aV243566299354107905
p826
aV248587254497411072
p827
aV266001715332001792
p828
aV258251501347143681
p829
aV258398847271841792
p830
aV263642905875456000
p831
aV229593340444811264
p832
aV261505127821762563
p833
aV261672258270015489
p834
aV265995369341657090
p835
aV253669127753986048
p836
aV226280100348428289
p837
aV265992169066749952
p838
aV255518895543304193
p839
aV265966214726184960
p840
aV265112111833833473
p841
aV234660751766331395
p842
aV262365509582995456
p843
aV266004290630455296
p844
aV260754800390594561
p845
aV253939417088155648
p846
aV266012771517345792
p847
aV265648986940129280
p848
aV251491583545966592
p849
aV258978470728695808
p850
aV258530812641820673
p851
aV266031100625813505
p852
aV244524882350731264
p853
aV248278427931652096
p854
aV260758512337043456
p855
aV253678669829115905
p856
aV251144421016473601
p857
aV258385752625405952
p858
aV244012837536677889
p859
aV233408064152285186
p860
aV261239427056140288
p861
aV265982815793991680
p862
aV242687089349648384
p863
aV231871090799034369
p864
aV258616619700482048
p865
aV248920865243291648
p866
aV263333420728475648
p867
aV253677952590553089
p868
aV253674945266208770
p869
aV262355904656187392
p870
aV260549472457732096
p871
aV265994786316615680
p872
aV258050615186436099
p873
aV261681477337620481
p874
aV266017695621849089
p875
aV265864804852441088
p876
aV266037937332957185
p877
aV253667605234204672
p878
aV234014833153015809
p879
aV243350129099292673
p880
aV258404299867049986
p881
aV258416505283284992
p882
aV238324040094343168
p883
aV263723000275279873
p884
aV228691674174464000
p885
aV247472421085540352
p886
aV264435746759385088
p887
aV259125862765584384
p888
aV234730884727705600
p889
aV230916655977492480
p890
aV266030324666998784
p891
aV261633825845690371
p892
aV249104697431044096
p893
aV263688393068785664
p894
aV243912585257299969
p895
aV236667369722884096
p896
aV258323446239473664
p897
aV266007272768032768
p898
aV265985961496805376
p899
aV256063483941101568
p900
aV265846102450921473
p901
aV244483828515758082
p902
aV258404144661024769
p903
aV253763306681139200
p904
aV265977098928275456
p905
aV222426973635481601
p906
aV259008027951239168
p907
aV226126353945219073
p908
aV253665206088126464
p909
aV266004932342190080
p910
aV234309625615380480
p911
aV265622827045105664
p912
aV230321253515395072
p913
aV230012678578524160
p914
aV232107951559684097
p915
aV265836161942036480
p916
aV260586080305311745
p917
aV245995086566014976
p918
aV256138956264075264
p919
aV253544586306269184
p920
aV262031378781175808
p921
aV253665063506939904
p922
aV266006165488545792
p923
aV264934805995659264
p924
aV261235534725275648
p925
aV255791353311666177
p926
aV240258264334467072
p927
aV251050183377420288
p928
aV258438286295572480
p929
aV259356000019156992
p930
aV218394691379544065
p931
aV233299377144360960
p932
aV218381844222181376
p933
aV246815433699766273
p934
aV246016422998847488
p935
aV234776510370811904
p936
aV244303515390996480
p937
aV253587900883668992
p938
aV253679907136208897
p939
aV221303206347677696
p940
aV253663004082704384
p941
aV253708965270126595
p942
aV260800174392213504
p943
aV266038541308534785
p944
aV265972606849667073
p945
aV259459599315378176
p946
aV265987622441213952
p947
aV257658657477627904
p948
aV229137960690409472
p949
aV218345781608984578
p950
aV265972715884773377
p951
aV235999347114905600
p952
aV243109808071397376
p953
aV254723336725217281
p954
aV266006891069571072
p955
aV265230751925145602
p956
aV253668930630066176
p957
aV265972657189695490
p958
aV237284414751662080
p959
aV266023278219505664
p960
aV253672973930725377
p961
aV246374587196125186
p962
aV250993887429136384
p963
aV255324791538610177
p964
aV230229108876009472
p965
aV218356338672148480
p966
aV230673256317861888
p967
aV236852174913675266
p968
aV265505554305277952
p969
aV244915460116729857
p970
aV266018937144233985
p971
aV243930952114511873
p972
aV239756256502493184
p973
aV241002723938553856
p974
aV265943062163890177
p975
aV249865401545134080
p976
aV260587632218763265
p977
aV262852803855278080
p978
aV265830403166838785
p979
aV243529569829797888
p980
aV260565020730085377
p981
aV258385635184873473
p982
aV219883262464622592
p983
aV258386448888258561
p984
aV256561704366907392
p985
aV256571502261059584
p986
aV257744783315980288
p987
aV265825961398915075
p988
aV245924869739540480
p989
aV232126377116192768
p990
aV266020052795543553
p991
aV253686391509225474
p992
aV243862161334628353
p993
aV253687784047521792
p994
aV253692154495520768
p995
aV266038981697875970
p996
aV257882738164649984
p997
aV260954923234127873
p998
aV244546340409974786
p999
aV243505129624580098
p1000
aV266002625487581185
p1001
aV265661024575827969
p1002
aV265936753939070976
p1003
aV248113138782851073
p1004
aV251023658582167552
p1005
aV256579827937734656
p1006
aV253661481562955776
p1007
aV260760429138173952
p1008
aV265977929404645378
p1009
aV252515534782988290
p1010
aV266040097399525377
p1011
aV239200339230871552
p1012
aV263677404017471490
p1013
aV262925575000305664
p1014
aV258639763895091200
p1015
aV265787143098605568
p1016
aV256580352221540353
p1017
aV265994979254603776
p1018
aV243911356322050049
p1019
aV260562726458372096
p1020
aV265512965673975809
p1021
aV249978333167775744
p1022
aV263339326325280768
p1023
aV236209666282094594
p1024
aV264474116248174592
p1025
aV258385274478948353
p1026
aV253627889390592001
p1027
aV260575871386128386
p1028
aV258199693295755265
p1029
aV258414693352345600
p1030
aV243169220362399744
p1031
aV265620813800169472
p1032
aV258409668563591168
p1033
aV266036301550219264
p1034
aV255139772375379968
p1035
aV239771079172825088
p1036
aV218359517946183681
p1037
aV222524260508372992
p1038
aV245389047374163968
p1039
aV246432082715369472
p1040
aV260791378919964672
p1041
aV264415882544041984
p1042
aV266033713647865856
p1043
aV235709306778054658
p1044
aV241384632103362560
p1045
aV258388378255515648
p1046
aV261310478549123073
p1047
aV243183225151832064
p1048
aV265995268657393664
p1049
aV265944186224787456
p1050
aV230102193422888960
p1051
aV251464886813614081
p1052
aV222933825880195072
p1053
aV264015691416498176
p1054
aV246318547100389376
p1055
aV258402009747709952
p1056
aV266004177354903552
p1057
aV260941581132115970
p1058
aV230743527674503169
p1059
aV226629699789533184
p1060
aV251697112847351809
p1061
aV266038939759017984
p1062
aV253683606516547586
p1063
aV260560859984691200
p1064
aV253350117388734465
p1065
aV233616038728708096
p1066
aV266036645470552064
p1067
aV264235506475339776
p1068
aV261864965554712576
p1069
aV265977585475928064
p1070
aV253676518121820162
p1071
aV258394942345461761
p1072
aV265985277850431490
p1073
aV253684751548948480
p1074
aV265997269361377281
p1075
aV247816056238919680
p1076
aV243359759238057985
p1077
aV243554832122802176
p1078
aV253665797505961984
p1079
aV266015552340897793
p1080
aV244100477506170880
p1081
aV243890451910897664
p1082
aV265999093883613184
p1083
aV234425191239938048
p1084
aV258439527796994049
p1085
aV262372576993624064
p1086
aV262791181107339265
p1087
aV255776539042512896
p1088
aV250442382582099968
p1089
aV265938192564367361
p1090
aV265860073652371456
p1091
aV243911758996197376
p1092
aV261695838634516480
p1093
aV265251496923394049
p1094
aV264939839160455170
p1095
aV265889433801347072
p1096
aV253714879255564288
p1097
aV249575071818067970
p1098
aV266008111624634369
p1099
aV260564412547596288
p1100
aV244028104794861568
p1101
aV223429546513412097
p1102
aV251829690585714689
p1103
aV266030383391457280
p1104
aV265784253252530176
p1105
aV258298402054471681
p1106
aV244159474565255169
p1107
aV258410582913449984
p1108
aV261284503237054464
p1109
aV254397502218981376
p1110
aV259028835905986560
p1111
aV243432928862953472
p1112
aV244011017212928000
p1113
aV240937917755842560
p1114
aV223851086618951680
p1115
aV265818004795817984
p1116
aV255414742573805568
p1117
aV258794181378584576
p1118
aV265788967633444865
p1119
aV219118066238369792
p1120
aV228323707859390464
p1121
aV262017457852665856
p1122
aV260586873066508289
p1123
aV265824384336416768
p1124
aV253574495871320064
p1125
aV243327802823278593
p1126
aV242281504334548994
p1127
aV253687855346503680
p1128
aV243904100184502272
p1129
aV253665294164324352
p1130
aV246692871959359488
p1131
aV260598143144570880
p1132
aV249637885739945985
p1133
aV247851581997985792
p1134
aV250788605616857089
p1135
aV265947382297006080
p1136
aV260560193073606656
p1137
aV247157558878539776
p1138
aV261347757544050689
p1139
aV219205651673518083
p1140
aV247930644632580098
p1141
aV243487639372693505
p1142
aV258392291562094594
p1143
aV266016894513983488
p1144
aV266007427953070080
p1145
aV246105396748632065
p1146
aV249545145488392192
p1147
aV240643112698003456
p1148
aV265941921313198080
p1149
aV258242496193241088
p1150
aV218347631288664066
p1151
aV243938099212722176
p1152
aV266032497312280576
p1153
aV266022263197954048
p1154
aV258372037280681984
p1155
aV266037710836346880
p1156
aV245942435476279296
p1157
aV243194843390697472
p1158
aV228988542817300481
p1159
aV266033810133630978
p1160
aV243021522162307072
p1161
aV265876951535869952
p1162
aV243437995577982976
p1163
aV258383995237187586
p1164
aV218114268623679488
p1165
aV252614679749345281
p1166
aV234624512962994176
p1167
aV265982387954016257
p1168
aV239479646352183297
p1169
aV265898917118496768
p1170
aV218404921286991873
p1171
aV265983319093682176
p1172
aV265848870674759680
p1173
aV266020254159876097
p1174
aV263014506848993280
p1175
aV226294285480382465
p1176
aV265654099800907776
p1177
aV260555797447196672
p1178
aV253516341846364160
p1179
aV260556682432770048
p1180
aV258604347175354368
p1181
aV253213198541545473
p1182
aV265973512806731776
p1183
aV258365724827987968
p1184
aV263227661390864384
p1185
aV249193197232861184
p1186
aV266033663328780288
p1187
aV265940805649301505
p1188
aV253676304237486081
p1189
aV261036468896690176
p1190
aV246010777469865985
p1191
aV253688316724129792
p1192
aV231765167833227265
p1193
aV250910596952911872
p1194
aV260549283688878080
p1195
aV243694674404069376
p1196
aV260593755915161601
p1197
aV227402710020919296
p1198
aV260570792096583680
p1199
aV266037425615294464
p1200
aV250033710597038081
p1201
aV264125015929274368
p1202
aV244109679796551682
p1203
aV223731779650064384
p1204
aV266031452947365888
p1205
aV244623930822905856
p1206
aV265958056821657600
p1207
aV264063074435207168
p1208
aV246046307393880064
p1209
aV253660139381473282
p1210
aV261244581838983171
p1211
aV264224420946649088
p1212
aV265465511293358080
p1213
aV253680070693122048
p1214
aV259291437101879296
p1215
aV264519494410592257
p1216
aV261463528714665984
p1217
aV244889358967132160
p1218
aV258391024869728258
p1219
aV259736855417851904
p1220
aV254017481507733504
p1221
aV265980278244261889
p1222
aV266019264299945984
p1223
aV246751915147403265
p1224
aV257481582347157504
p1225
aV260575795884474368
p1226
aV265659334275506176
p1227
aV243899209621831682
p1228
aV256035591823712256
p1229
aV258377481491476481
p1230
aV256963225097220097
p1231
aV245301206073876480
p1232
aV266021692793552896
p1233
aV265977967174369280
p1234
aV236860366418739200
p1235
aV265592791650926594
p1236
aV258397547008233472
p1237
aV243911251472818176
p1238
aV222343813136519170
p1239
aV266006127739797504
p1240
aV265852561658114049
p1241
aV265643630792933376
p1242
aV253306039460569088
p1243
aV265880881623863296
p1244
aV266016932262719489
p1245
aV261107629424771076
p1246
aV243901055115595776
p1247
aV265997978194571264
p1248
aV263736954749861888
p1249
aV226765108695687169
p1250
aV260188493844729858
p1251
aV253900405870825472
p1252
aV260479947636883456
p1253
aV251041165644800000
p1254
aV258287945650429952
p1255
aV249615613956341760
p1256
aV264903478760067072
p1257
aV240064718201565184
p1258
aV261483934016233472
p1259
aV253578983793385473
p1260
aV258390035030749184
p1261
aV266000129855741952
p1262
aV258764246626746368
p1263
aV265817283400704000
p1264
aV259011723154038784
p1265
aV231159321604526080
p1266
aV265870769165320192
p1267
aV219307392901451776
p1268
aV260730477634256896
p1269
aV245639787053203459
p1270
aV243166636679503872
p1271
aV253662349767081985
p1272
aV265978931847499777
p1273
aV251430459953782784
p1274
aV265973340852854784
p1275
aV231912438260441088
p1276
aV265933805347561473
p1277
aV258386318852251648
p1278
aV222116976816959488
p1279
aV242784447534084096
p1280
aV243250023649910784
p1281
aV265868382568595456
p1282
aV265979678425219073
p1283
aV265785742205263872
p1284
aV243184022090567680
p1285
aV224719219458183168
p1286
aV248458841686147072
p1287
aV259014361379643392
p1288
aV229956458119323648
p1289
aV253537250460200960
p1290
aV243902997099315200
p1291
aV265852607812218880
p1292
aV263279523943034880
p1293
aV246094520909959169
p1294
aV261945882080063489
p1295
aV235379122799538176
p1296
aV243960685564940288
p1297
aV258382598508773377
p1298
aV242782262297522177
p1299
aV265256198742368256
p1300
aV266031046083100672
p1301
aV266036590948798465
p1302
aV233548783055679488
p1303
aV218377641537974272
p1304
aV245212790162333697
p1305
aV253687305901047808
p1306
aV265145456559022080
p1307
aV220962377192058883
p1308
aV242000934765465600
p1309
aV226330918527303681
p1310
aV258388378280656896
p1311
aV260598650663759872
p1312
aV253908580565151744
p1313
aV240042165433155585
p1314
aV266012792463712256
p1315
aV262924950044831744
p1316
aV258403351929163776
p1317
aV239863181890183168
p1318
aV263017048588836864
p1319
aV265895314198761472
p1320
aV265829073580871683
p1321
aV265976469782671360
p1322
aV248976322351751168
p1323
aV246319981531373568
p1324
aV250920503894753280
p1325
aV249898498818969600
p1326
aV218054524928143360
p1327
aV234427821072728064
p1328
aV244053983658921986
p1329
aV265820663984553984
p1330
aV229710281859813377
p1331
aV253671409455341569
p1332
aV245908604216045568
p1333
aV265177849173000193
p1334
aV253147654148743171
p1335
aV243184911283019776
p1336
aV218465789035024384
p1337
aV232583136809205760
p1338
aV262374443463086080
p1339
aV246284938117279744
p1340
aV261715518292103168
p1341
aV244114377412845568
p1342
aV261212881318731777
p1343
aV258594020819881985
p1344
aV249233730974121985
p1345
aV250659458798194688
p1346
aV243986593768153088
p1347
aV241353397117259776
p1348
aV264174135410835456
p1349
aV265898434756747264
p1350
aV259106019513344000
p1351
aV265936993026969600
p1352
aV243405846229417984
p1353
aV259736800879337473
p1354
aV253632037540466688
p1355
aV253680414621851649
p1356
aV228259413360783361
p1357
aV254730286682755072
p1358
aV259423679283331072
p1359
aV266029775213178880
p1360
aV243165567127805953
p1361
aV265816859738251264
p1362
aV266024154858405888
p1363
aV258386864145305600
p1364
aV243570384593620992
p1365
aV265248510574751745
p1366
aV266039103332687872
p1367
aV265893938500620288
p1368
aV231752102601433090
p1369
aV243177671918505984
p1370
aV266032392446308352
p1371
aV243539543859556352
p1372
aV262618157695504384
p1373
aV253677805785739265
p1374
aV263290051633508352
p1375
aV235801426301960193
p1376
aV265618053922971648
p1377
aV231586788278407168
p1378
aV259782481027399682
p1379
aV258381445075177473
p1380
aV234178968843087872
p1381
aV253587494032003072
p1382
aV258378592952664064
p1383
aV218077300019838976
p1384
aV257938702729375744
p1385
aV235030148284563456
p1386
aV244622227960643584
p1387
aV242780882371502081
p1388
aV266019876647358466
p1389
aV261516980945813504
p1390
aV266021625676308480
p1391
aV265857284477960192
p1392
aV257894859673837569
p1393
aV244849127219945475
p1394
aV253693840597348353
p1395
aV258941896360071169
p1396
aV235425012658626560
p1397
aV265978566934675456
p1398
aV228966023586529280
p1399
aV260556439188287488
p1400
aV266034879685357568
p1401
aV266029368353124352
p1402
aV245671068210196480
p1403
aV263765077558177792
p1404
aV243177499922669568
p1405
aV241603729961398272
p1406
aV252532483969658881
p1407
aV265909738443776001
p1408
aV243200304382877696
p1409
aV239918106288476161
p1410
aV263884690702868481
p1411
aV240908398235906050
p1412
aV260559043838504960
p1413
aV252211552608997376
p1414
aV266031436149178369
p1415
aV240175670112698369
p1416
aV248471646900482049
p1417
aV230848540467933184
p1418
aV252785627010043906
p1419
aV243181996216561666
p1420
aV258373417189916672
p1421
aV259104324985184256
p1422
aV258677214806159361
p1423
aV229010797777526784
p1424
aV266039015248130048
p1425
aV247026558190096384
p1426
aV265566854062411776
p1427
aV252227302216331265
p1428
aV260568757863317505
p1429
aV260837902131539968
p1430
aV261380833833779200
p1431
aV237394305491292161
p1432
aV265635305133060096
p1433
aV260426679980285954
p1434
aV257998823903883266
p1435
aV251613671334240256
p1436
aV243718426760212480
p1437
aV253663532577615872
p1438
aV243348992459685888
p1439
aV265973789660168194
p1440
aV219444928315535360
p1441
aV260027516490768385
p1442
aV262263676084551680
p1443
aV260580413829959680
p1444
aV223031368630796289
p1445
aV246925999768498176
p1446
aV247722615513427968
p1447
aV230731632615780352
p1448
aV266036083442212864
p1449
aV265987974783696896
p1450
aV256118345454194688
p1451
aV235994540434149376
p1452
aV256010795090071552
p1453
aV265424570692034560
p1454
aV243919300358979585
p1455
aV253676597821984769
p1456
aV245684368318812160
p1457
aV235803682808147968
p1458
aV226512422842802176
p1459
aV255324086891323393
p1460
aV266005246923378688
p1461
aV265496331047555072
p1462
aV248940981125251072
p1463
aV243900560204496896
p1464
aV242021084201881600
p1465
aV255458610803531776
p1466
aV243479192027676672
p1467
aV251928395120775168
p1468
aV256568658510360576
p1469
aV266003116221157377
p1470
aV260494002766352384
p1471
aV257029809648066560
p1472
aV266000977117708288
p1473
aV266000255714205696
p1474
aV265027529486766080
p1475
aV264421976834191361
p1476
aV266029771010490368
p1477
aV253672944591581185
p1478
aV258395290489483264
p1479
aV253656695841124352
p1480
aV253699309982339074
p1481
aV255403166282178560
p1482
aV261136255553785857
p1483
aV233545939304984577
p1484
aV265897189065236482
p1485
aV228147324789063680
p1486
aV245042954396381185
p1487
aV241243384742809603
p1488
aV241091425083744256
p1489
aV245832930579062784
p1490
aV241500671738802176
p1491
aV263634114605891584
p1492
aV228309052961206272
p1493
aV266031163519430656
p1494
aV256935567852437505
p1495
aV243908495806713856
p1496
aV243550470042443776
p1497
aV241917275182088192
p1498
aV258378592956866560
p1499
aV219128359031017473
p1500
aV266035278131646464
p1501
aV248525736644849665
p1502
aV246980131422363649
p1503
aV253888582157225984
p1504
aV248624424444633088
p1505
aV243910014178299905
p1506
aV218209328333733889
p1507
aV253947780551290881
p1508
aV265640938053967872
p1509
aV245885153866575874
p1510
aV219947842150731776
p1511
aV245007990653083649
p1512
aV241013859845042176
p1513
aV252092006568972289
p1514
aV248973977714823168
p1515
aV265995415479005184
p1516
aV243176661082861568
p1517
aV244415033520570369
p1518
aV266018739986788352
p1519
aV239498709468061696
p1520
aV243908210594033664
p1521
aV265997437129334784
p1522
aV258651147223564289
p1523
aV234705031016894464
p1524
aV260549979960139776
p1525
aV261548828279316480
p1526
aV265987744084406272
p1527
aV260033560478617600
p1528
aV265992332661362689
p1529
aV266029200572575745
p1530
aV258385010267127810
p1531
aV255422183269089280
p1532
aV260383751287222272
p1533
aV260067681145864192
p1534
aV248554568303132674
p1535
aV252896478249500672
p1536
aV256784447070928896
p1537
aV250724613099761665
p1538
aV261156090450952193
p1539
aV244630889169055745
p1540
aV234771858875105282
p1541
aV243908323865415684
p1542
aV266027678052790274
p1543
aV253676417454309376
p1544
aV238497545859514369
p1545
aV266022275793440768
p1546
aV231156423336284160
p1547
aV258382422360608769
p1548
aV265888817238654977
p1549
aV253680418845499392
p1550
aV244037319672360961
p1551
aV246821188293255169
p1552
aV256816806138888192
p1553
aV265677705327022080
p1554
aV253678481085440002
p1555
aV266035349443211265
p1556
aV258396351627415552
p1557
aV265512395210903552
p1558
aV261543430210084864
p1559
aV244190495658622976
p1560
aV259344360812990464
p1561
aV249372323386363904
p1562
aV219476981220261888
p1563
aV258412659102326784
p1564
aV258388982273032192
p1565
aV258383961657577472
p1566
aV258391586923229184
p1567
aV253662785995669504
p1568
aV242980053087047681
p1569
aV265080583233863680
p1570
aV266007516029263872
p1571
aV244128696766713857
p1572
aV253579730387886081
p1573
aV253897104982945792
p1574
aV266002797437284352
p1575
aV259096414532030464
p1576
aV264100810588319746
p1577
aV239768650679218176
p1578
aV265978898309844992
p1579
aV253688299946917890
p1580
aV259001199657889792
p1581
aV256854252859834369
p1582
aV259753737453707264
p1583
aV237299350663987201
p1584
aV242747164357443585
p1585
aV253704833859739650
p1586
aV263482633110028288
p1587
aV227951945732734977
p1588
aV243904368632545281
p1589
aV251660135846510592
p1590
aV265493046911713280
p1591
aV243309419172073472
p1592
aV265828595438587904
p1593
aV266026935652610048
p1594
aV236775599543316481
p1595
aV253908446355804161
p1596
aV257661358575874049
p1597
aV257996991001407488
p1598
aV245768178913923072
p1599
aV258391444321083392
p1600
aV218380778864771072
p1601
aV266038583264165888
p1602
aV227229917262249984
p1603
aV217937742947028993
p1604
aV253747481547005952
p1605
aV253673917678489600
p1606
aV257988170367512576
p1607
aV253678564954746880
p1608
aV248794599919865857
p1609
aV251094416511623168
p1610
aV247894712013430785
p1611
aV266017737577492480
p1612
aV256914298515881984
p1613
aV264970239475859456
p1614
aV260564974584332288
p1615
aV248472817107087360
p1616
aV243905639498268672
p1617
aV223074490253451265
p1618
aV227180093150203906
p1619
aV234118335963484160
p1620
aV253686009844350976
p1621
aV265978919256207360
p1622
aV229947977265979392
p1623
aV228632110842396672
p1624
aV265990734623174657
p1625
aV240453249147236354
p1626
aV265509081748484097
p1627
aV259953717703503873
p1628
aV253736224068624384
p1629
aV261536320864796672
p1630
aV258380643967324162
p1631
aV244837370573254656
p1632
aV265992311668883456
p1633
aV258398683698167808
p1634
aV265979988833079297
p1635
aV260557043142905857
p1636
aV251868810846560256
p1637
aV265869267566743552
p1638
aV265983444914413568
p1639
aV258026875417415680
p1640
aV261696262263406592
p1641
aV266033533326348288
p1642
aV265646394851876864
p1643
aV246069657109397504
p1644
aV236855534559584256
p1645
aV265911051244167168
p1646
aV232993251680993281
p1647
aV255520858473390080
p1648
aV266032446968049665
p1649
aV236144017023320064
p1650
aV264030811874000896
p1651
aV259688948060786688
p1652
aV243925486965780480
p1653
aV247733793329397760
p1654
aV253670365082046465
p1655
aV266025048236752896
p1656
aV266016835785330688
p1657
aV260694683443945472
p1658
aV224505360306810884
p1659
aV253672143483715584
p1660
aV253667106107817984
p1661
aV236721505571074048
p1662
aV250024659280592897
p1663
aV254666910761897985
p1664
aV266038876869652483
p1665
aV224331883893358593
p1666
aV256581883167657984
p1667
aV262958043115966464
p1668
aV263814771642626048
p1669
aV253683447103639553
p1670
aV266036595138908164
p1671
aV265607547195625472
p1672
aV248221095956738048
p1673
aV248665037869305856
p1674
aV243904955830906880
p1675
aV247478599320494080
p1676
aV245614432502292480
p1677
aV264927398879961088
p1678
aV260761175732674562
p1679
aV256023478673764354
p1680
aV258375065542987776
p1681
aV263299786604687360
p1682
aV258583472124354561
p1683
aV227983327502692352
p1684
aV258570469807124480
p1685
aV238090895512195072
p1686
aV243879102157815809
p1687
aV264226241266188289
p1688
aV243924027322798080
p1689
aV253909209710735360
p1690
aV253676123869827074
p1691
aV265824908620210176
p1692
aV244513771635228673
p1693
aV243902237930299392
p1694
aV260570834010247168
p1695
aV219859891811139585
p1696
aV265875185742254081
p1697
aV231617637384335360
p1698
aV258965195739770881
p1699
aV265863114556329985
p1700
aV228853200994840576
p1701
aV253276545106460674
p1702
aV258375237517840385
p1703
aV230607590269272064
p1704
aV266016751882498049
p1705
aV253918013559025664
p1706
aV237641928831819776
p1707
aV265571195179642880
p1708
aV232653013918052352
p1709
aV253814896590991360
p1710
aV261161605927165952
p1711
aV263054465979019266
p1712
aV261302920425914369
p1713
aV258388822885289984
p1714
aV244784664936603650
p1715
aV250074613445435392
p1716
aV254995295383998466
p1717
aV253751118029520896
p1718
aV258595081970397184
p1719
aV255714983441207296
p1720
aV240919362171715585
p1721
aV265812761903235072
p1722
aV254938902991892481
p1723
aV243350108144541696
p1724
aV265892613087969280
p1725
aV265995268669976576
p1726
aV258529583719129088
p1727
aV265839529984917504
p1728
aV241929598038863872
p1729
aV258033653395894273
p1730
aV222001084007321601
p1731
aV265188985050124288
p1732
aV240616978023346176
p1733
aV260556204282101761
p1734
aV222367922033664001
p1735
aV227458146136911873
p1736
aV255357406421331968
p1737
aV265616053252526080
p1738
aV254286751613476864
p1739
aV248100908175605762
p1740
aV243465388560642050
p1741
aV246343465464655872
p1742
aV260562709647597569
p1743
aV243908713944080385
p1744
aV244637637804175360
p1745
aV258400403346055169
p1746
aV266006807208660992
p1747
aV265134849160011776
p1748
aV243180578554380288
p1749
aV250989261099257856
p1750
aV262389270352891904
p1751
aV218018378424655872
p1752
aV253938305610174464
p1753
aV249197416677527553
p1754
aV260620398113210368
p1755
aV266033520722460673
p1756
aV265991674147266560
p1757
aV258397651890995200
p1758
aV253340290134458369
p1759
aV265867493413896192
p1760
aV252931836219621378
p1761
aV253671673709096960
p1762
aV246975798706315264
p1763
aV234329762460479490
p1764
aV243149041570050048
p1765
aV261884494217355264
p1766
aV243181828473753601
p1767
aV253681308033761280
p1768
aV262332382982578176
p1769
aV255371323130388481
p1770
aV265972875285110785
p1771
aV256088876257525760
p1772
aV264253164486815745
p1773
aV253674685219364866
p1774
aV226759169544437760
p1775
aV258311895151423488
p1776
aV250342310699737088
p1777
aV261506323194183680
p1778
aV233004706333597696
p1779
aV266037903753347073
p1780
aV266006089986887681
p1781
aV265800204178055169
p1782
aV266033537495465985
p1783
aV260572142662455298
p1784
aV255409466139369472
p1785
aV254264471462236160
p1786
aV258396016095657986
p1787
aV249991117431521282
p1788
aV265982916453072896
p1789
aV242778873295695872
p1790
aV258382464320413696
p1791
aV248876497933324288
p1792
aV252502553433088000
p1793
aV258379972903854080
p1794
aV260552609759363073
p1795
aV233212844475285508
p1796
aV243354268894113793
p1797
aV266006077403971584
p1798
aV263050317812359168
p1799
aV253682209809125376
p1800
aV250005050913611779
p1801
aV250973545071521792
p1802
aV245765565879287808
p1803
aV220521882984775680
p1804
aV265969788260610049
p1805
aV263053518083088384
p1806
aV253220123345825792
p1807
aV258374138614407168
p1808
aV265943448060846082
p1809
aV263123206410493952
p1810
aV253678980190842880
p1811
aV264006929486082048
p1812
aV246038367605772288
p1813
aV253688505467813889
p1814
aV243908013478526979
p1815
aV262058448781455360
p1816
aV266036016354324480
p1817
aV231141248356990976
p1818
aV240298429014749184
p1819
aV241973373968723968
p1820
aV241376209953501184
p1821
aV265887990973353986
p1822
aV254963670331826176
p1823
aV244229452345774081
p1824
aV218963363500273664
p1825
aV266031641691029504
p1826
aV265985483362951168
p1827
aV265389309165715456
p1828
aV253673418552119298
p1829
aV249543274828812288
p1830
aV265808269807874048
p1831
aV265985244266643456
p1832
aV243547139744096256
p1833
aV259056832893562881
p1834
aV255705231688622080
p1835
aV265722806665347072
p1836
aV228841813442695168
p1837
aV229716216799977472
p1838
aV240263695979134977
p1839
aV260738128036368384
p1840
aV245971950780956672
p1841
aV252133890884509696
p1842
aV265834907832573952
p1843
aV232957491028307968
p1844
aV239165295854510082
p1845
aV258765869839155203
p1846
aV244067778708008960
p1847
aV238356764070924288
p1848
aV254054211019472896
p1849
aV260558012039700482
p1850
aV233342179999887361
p1851
aV262307519161040896
p1852
aV265423362724069376
p1853
aV257740328927363074
p1854
aV253804821893767168
p1855
aV253664543400669185
p1856
aV240819676119183360
p1857
aV234222027576340480
p1858
aV260355204854210560
p1859
aV237973379502718976
p1860
aV253685514895507457
p1861
aV251805296522035200
p1862
aV245286169510825984
p1863
aV261506482607108097
p1864
aV260563238163468288
p1865
aV243906830663827458
p1866
aV265813659484307458
p1867
aV245971057394216962
p1868
aV243143748366761984
p1869
aV263333747905155072
p1870
aV243060806005182464
p1871
aV266033801757618176
p1872
aV235807818400280576
p1873
aV248157296423743490
p1874
aV249567140401790976
p1875
aV244829757936660481
p1876
aV265280114672168960
p1877
aV253822576386793473
p1878
aV265833490174574592
p1879
aV265568640848498691
p1880
aV260239366566313984
p1881
aV261249107513982976
p1882
aV262925642109186049
p1883
aV265458636854263808
p1884
aV264068808065548288
p1885
aV258262096167440384
p1886
aV266010384937385984
p1887
aV252034754319360000
p1888
aV248550520812367872
p1889
aV244932056994443264
p1890
aV261966442562465792
p1891
aV253275022590873601
p1892
aV263322419090055169
p1893
aV253665772340117504
p1894
aV265971864441069568
p1895
aV246348381193138177
p1896
aV237005644530581504
p1897
aV261161735971540993
p1898
aV258378475507965952
p1899
aV244070026850750465
p1900
aV261515009627131904
p1901
aV258386885100048384
p1902
aV253674953663184896
p1903
aV219113276318027776
p1904
aV240807143559790593
p1905
aV262883447444488192
p1906
aV265980110451138562
p1907
aV240560174564270081
p1908
aV266033499755134977
p1909
aV253673611477516288
p1910
aV257695781245579264
p1911
aV230725714457022464
p1912
aV266014734422269952
p1913
aV227782114177863680
p1914
aV258974020563791872
p1915
aV257085417751465984
p1916
aV255730754003279874
p1917
aV264917164761440256
p1918
aV255349835727785984
p1919
aV236435990913380353
p1920
aV248184118997811200
p1921
aV232485745091280896
p1922
aV265814900998279168
p1923
aV233201528226332673
p1924
aV266028663722627072
p1925
aV255820390490857472
p1926
aV265361287058440193
p1927
aV258367771639963649
p1928
aV265989115621830656
p1929
aV266005532148654080
p1930
aV244062871389097985
p1931
aV263277644899028993
p1932
aV266020480639696897
p1933
aV258377242395172865
p1934
aV253669782086373376
p1935
aV248812379587100673
p1936
aV266034980344438784
p1937
aV265977262522916864
p1938
aV223638485758779392
p1939
aV250741260313321472
p1940
aV218519648113659904
p1941
aV266011878118023168
p1942
aV248292143276371968
p1943
aV245145022763261952
p1944
aV265820760474521600
p1945
aV260735837963182080
p1946
aV257178661315309570
p1947
aV262048969654403072
p1948
aV265681983512911874
p1949
aV244184418091139073
p1950
aV235346516267642880
p1951
aV252775652925775873
p1952
aV243528114410504193
p1953
aV265626266370195458
p1954
aV254352518304378880
p1955
aV258397601534185472
p1956
aV265814712279769088
p1957
aV253172803199721473
p1958
aV258364634321543168
p1959
aV265189828071669761
p1960
aV266017435587584001
p1961
aV253655747953557505
p1962
aV265646059315941376
p1963
aV266005515337871361
p1964
aV265936317748236289
p1965
aV266012339504025600
p1966
aV260565968630185984
p1967
aV265794634125545473
p1968
aV266038730069000192
p1969
aV263812393468063745
p1970
aV265835381805707266
p1971
aV260910622991081472
p1972
aV266017519469469696
p1973
aV246744612876713986
p1974
aV243924308362158081
p1975
aV253669744320843777
p1976
aV260567533118160896
p1977
aV245070628397395968
p1978
aV235949539738140672
p1979
aV266034942578925569
p1980
aV253686412505915392
p1981
aV247383078224412673
p1982
aV243898211402657792
p1983
aV228680089506828289
p1984
aV264263071458013184
p1985
aV243554559480434690
p1986
aV236321780007047168
p1987
aV259374383632625664
p1988
aV249220145640267776
p1989
aV261612275536900097
p1990
aV246087696810926080
p1991
aV253675012383461376
p1992
aV263159814291591169
p1993
aV266033675903303680
p1994
aV247068744516530176
p1995
aV255077885440839681
p1996
aV251010001949294592
p1997
aV261149127893729281
p1998
aV243693244154793986
p1999
aV265826754122366976
p2000
aV220707640328720386
p2001
aV253190863855972352
p2002
aV245943488225628161
p2003
aV265938469388431360
p2004
aV243586784334839808
p2005
aV258652296475467779
p2006
aV241276972729237504
p2007
aV223408440763097091
p2008
aV253693127569842176
p2009
aV260560285360865280
p2010
aV224915135410614273
p2011
aV265676648362422274
p2012
aV261636057223798785
p2013
aV261722665419685889
p2014
aV260763738464980992
p2015
aV244252097388892161
p2016
aV261595049501028352
p2017
aV266032467973124098
p2018
aV258391259759116290
p2019
aV242704667669327873
p2020
aV258381474452090880
p2021
aV230114415612157952
p2022
aV266036490293895168
p2023
aV243371847213785090
p2024
aV259370789109903360
p2025
aV258576014656036864
p2026
aV220961936777555968
p2027
aV239351602631299072
p2028
aV264887943037071362
p2029
aV264018409325461504
p2030
aV258868550599589889
p2031
aV265488949085089792
p2032
aV253743736037732352
p2033
aV243916368540495873
p2034
aV247522081665843203
p2035
aV224931598049615872
p2036
aV266032400843288577
p2037
aV243769014252359680
p2038
aV248892843102457856
p2039
aV245986895090307072
p2040
aV233029947646672896
p2041
aV233279038972624897
p2042
aV265549988778618880
p2043
aV223539567272267778
p2044
aV220838720708939776
p2045
aV240167910637727744
p2046
aV251393705251057664
p2047
aV266036444152356864
p2048
aV266035244585594882
p2049
aV258393289802264576
p2050
aV258375174586523650
p2051
aV265571866268286976
p2052
aV254929600021422082
p2053
aV265528232911175680
p2054
aV265855669645766656
p2055
aV258401229636521984
p2056
aV244782546850828290
p2057
aV243211721282560000
p2058
aV235672665346682880
p2059
aV245853100999593984
p2060
aV266017645286002688
p2061
aV238649769755566080
p2062
aV256091241874345984
p2063
aV223307664212508672
p2064
aV261966845198864384
p2065
aV254022279766343680
p2066
aV260568141300629504
p2067
aV247136679662583809
p2068
aV230099639112704000
p2069
aV265981029020495873
p2070
aV260584150942232576
p2071
aV265981016408219649
p2072
aV266003921531711488
p2073
aV243184902898593792
p2074
aV260549266911666177
p2075
aV264096343688105985
p2076
aV265778154709340160
p2077
aV248121040843186176
p2078
aV253021049069907968
p2079
aV241390185370230784
p2080
aV265671640350875649
p2081
aV254290895581609984
p2082
aV266039145267343361
p2083
aV250705306731036672
p2084
aV266036351890235392
p2085
aV261271282786652160
p2086
aV262016388334510081
p2087
aV247817884938682368
p2088
aV259045688619446275
p2089
aV227554027917946881
p2090
aV256585372799205376
p2091
aV259038658982731777
p2092
aV259331111023439872
p2093
aV222911856141012992
p2094
aV266032350511648771
p2095
aV266034774815166465
p2096
aV265993486073999360
p2097
aV244043225269141504
p2098
aV265856877605314561
p2099
aV261099698008518656
p2100
aV260839084937842689
p2101
aV258389447840763904
p2102
aV246395202200301569
p2103
aV253687356199145472
p2104
aV251353565770170368
p2105
aV265974355853451264
p2106
aV218376475546628097
p2107
aV243898152657231873
p2108
aV226295573144293377
p2109
aV243382144234295297
p2110
aV261130702295298050
p2111
aV248469247758573568
p2112
aV243507470042017792
p2113
aV251329792459292672
p2114
aV262854091494006784
p2115
aV265841937515417601
p2116
aV260351593545859073
p2117
aV266040323904532483
p2118
aV253553553728221185
p2119
aV266032472129683459
p2120
aV243937553965801473
p2121
aV260565884735746050
p2122
aV256571237998948352
p2123
aV228843780579680256
p2124
aV265913651729412096
p2125
aV255823511040450560
p2126
aV260412452930469889
p2127
aV222177337045815296
p2128
aV247343249117831169
p2129
aV258708365906173953
p2130
aV243913327644921858
p2131
aV265890356531433472
p2132
aV245264522703687680
p2133
aV264167231586443265
p2134
aV266037345944498176
p2135
aV264038701351464960
p2136
aV266030723117490176
p2137
aV265947323580964865
p2138
aV258379914158424064
p2139
aV260576638947966976
p2140
aV253679982646272000
p2141
aV266014277251514368
p2142
aV266028084908675072
p2143
aV254233110680576000
p2144
aV245999457009819649
p2145
aV248553179975913473
p2146
aV219676118381363200
p2147
aV227614081975209984
p2148
aV226311448563945472
p2149
aV259355584787267584
p2150
aV251417050742919168
p2151
aV243189558550859777
p2152
aV221331182321811457
p2153
aV226440855458811904
p2154
aV243903542367223808
p2155
aV246007363298029568
p2156
aV247954912858750977
p2157
aV266031159350280192
p2158
aV265952730034630656
p2159
aV254935736292360195
p2160
aV243164245930418176
p2161
aV242749550895431681
p2162
aV265653839749844992
p2163
aV246239903896190977
p2164
aV265816809431760896
p2165
aV248591427863474176
p2166
aV235835584684380161
p2167
aV253164234232455169
p2168
aV266037949928464385
p2169
aV266024452637200385
p2170
aV253529373561454592
p2171
aV249237497454948352
p2172
aV253391708119789568
p2173
aV262225017180409856
p2174
aV261264697729359872
p2175
aV258394409698205697
p2176
aV266036205068619776
p2177
aV236928221856276481
p2178
aV219096784306307072
p2179
aV253683656856571905
p2180
aV266030597309345793
p2181
aV258237907637239808
p2182
aV248742158532739072
p2183
aV265273244414771200
p2184
aV230506096530444288
p2185
aV228813074080092160
p2186
aV219887561613647873
p2187
aV258039349277515776
p2188
aV238668988052279296
p2189
aV259325092201377792
p2190
aV242670261801988096
p2191
aV253677596057948160
p2192
aV260474075628072962
p2193
aV266037765353914368
p2194
aV249957416177922049
p2195
aV265982664769695744
p2196
aV253901714502086656
p2197
aV253690325770575873
p2198
aV236842481877143552
p2199
aV248178414740176896
p2200
aV265830172492718080
p2201
aV253673770844307456
p2202
aV231911255470907392
p2203
aV265999173571194881
p2204
aV228909392068767745
p2205
aV241164229829353472
p2206
aV243133321352183808
p2207
aV266030496616685568
p2208
aV256945940366241792
p2209
aV232281931277029376
p2210
aV265907314119303170
p2211
aV258501607715655680
p2212
aV261902789775613952
p2213
aV243176757526663168
p2214
aV258374411227394048
p2215
aV265873877131984896
p2216
aV250407267877416960
p2217
aV230681015750893568
p2218
aV265946807673184257
p2219
aV265505780793495552
p2220
aV238696397833134081
p2221
aV265840469492248578
p2222
aV265423811543965696
p2223
aV236142528037015552
p2224
aV266020027650699264
p2225
aV265815760830599168
p2226
aV253695505761173504
p2227
aV232587515658383360
p2228
aV260755563753922560
p2229
aV247034648989929472
p2230
aV258954072432975873
p2231
aV265790498562789376
p2232
aV236134634394619905
p2233
aV260556825043283969
p2234
aV243167987266355200
p2235
aV223562933756624898
p2236
aV265575607574867968
p2237
aV243184827380137987
p2238
aV243808826573348865
p2239
aV254726423720386560
p2240
aV265973584114106368
p2241
aV265922510074310658
p2242
aV265833905393922048
p2243
aV253664056857223169
p2244
aV240960676045135872
p2245
aV265852742008987649
p2246
aV245981090165190657
p2247
aV241653176607064064
p2248
aV264223494005469184
p2249
aV265216587756367873
p2250
aV234395847884951552
p2251
aV243350129099292673
p2252
aV266036041499160577
p2253
aV253778708144480256
p2254
aV240526628516683776
p2255
aV261845659181780992
p2256
aV261087685513474049
p2257
aV221452531933528067
p2258
aV266032572809768960
p2259
aV253163781243420673
p2260
aV246406904283283458
p2261
aV265985873424822273
p2262
aV253669207470919681
p2263
aV252760935134015488
p2264
aV265427817070751744
p2265
aV218377410859630592
p2266
aV258400864706895872
p2267
aV266032711230164995
p2268
aV265228440867840000
p2269
aV265912879943917568
p2270
aV219854338561019904
p2271
aV263287438594699266
p2272
aV252094707679780865
p2273
aV260035066204409856
p2274
aV265299148411133952
p2275
aV229687284486774784
p2276
aV245341874028703745
p2277
aV254018899148943360
p2278
aV266026704961671168
p2279
aV253685447795023872
p2280
aV243910542652219393
p2281
aV256651999335043072
p2282
aV243908244161060864
p2283
aV253672651002892289
p2284
aV248408405214113792
p2285
aV239198250467463168
p2286
aV231028878771101696
p2287
aV261136066835259392
p2288
aV234524852093071360
p2289
aV260553188598493185
p2290
aV266020300297216000
p2291
aV261573331390713857
p2292
aV258854847804239872
p2293
aV265933545275527169
p2294
aV245140300010500096
p2295
aV258397828022411264
p2296
aV266008774333050880
p2297
aV264949624505249792
p2298
aV266036553216847872
p2299
aV265981557486002176
p2300
aV246104457232928769
p2301
aV261971052102574081
p2302
aV265573606912831488
p2303
aV265793501684436992
p2304
aV246687310291275776
p2305
aV265980508926791680
p2306
aV264155680494211072
p2307
aV241707241206603777
p2308
aV266005859283398656
p2309
aV251776246780928000
p2310
aV262760294261080065
p2311
aV253695631556747265
p2312
aV266022749753987072
p2313
aV248656267592220672
p2314
aV265806810215243776
p2315
aV253686953554362368
p2316
aV265980198518923264
p2317
aV241895611585134593
p2318
aV243369615844065280
p2319
aV222203404645183488
p2320
aV262222509011767297
p2321
aV266012888924299265
p2322
aV247539383140483072
p2323
aV253696613061627904
p2324
aV265685909381476352
p2325
aV265586206606241792
p2326
aV243916666336071680
p2327
aV232900083581079553
p2328
aV265528526516670465
p2329
aV265604502156091392
p2330
aV235495187584020481
p2331
aV250608745485316097
p2332
aV258378370658734081
p2333
aV253681526124998661
p2334
aV261530251698520064
p2335
aV250590890316398593
p2336
aV255354831118680064
p2337
aV251253397410418688
p2338
aV243175260185321473
p2339
aV266035135529504768
p2340
aV265248133116743680
p2341
aV263848804258828288
p2342
aV263476752716795904
p2343
aV265959667438604288
p2344
aV265908933133209600
p2345
aV235796053398544384
p2346
aV260579243610755073
p2347
aV233184860066439168
p2348
aV249314030928404481
p2349
aV219585534002077696
p2350
aV265837386666221569
p2351
aV219189830779809795
p2352
aV228508634718556160
p2353
aV243920088871362560
p2354
aV253676664939225089
p2355
aV230001559478616066
p2356
aV260548042195869698
p2357
aV265994056499339265
p2358
aV266038922986004482
p2359
aV265985948913905664
p2360
aV240970067100188672
p2361
aV243184600887734273
p2362
aV260578610266644480
p2363
aV243172022178435074
p2364
aV243889369797246976
p2365
aV266031096423137280
p2366
aV218377607991926784
p2367
aV266032459546763264
p2368
aV248937508270927872
p2369
aV243011405509443585
p2370
aV265981154820239360
p2371
aV251664799916781568
p2372
aV260514630361833472
p2373
aV266017355879047168
p2374
aV243159095316717568
p2375
aV263171449328648194
p2376
aV265140310114447362
p2377
aV236226544153026561
p2378
aV231175071216054273
p2379
aV230078822773563392
p2380
aV254947010543747072
p2381
aV258383198311022592
p2382
aV248880885137543168
p2383
aV253673712132431873
p2384
aV252478805275443201
p2385
aV233746418660167681
p2386
aV221411419374100480
p2387
aV265979737179041793
p2388
aV260556674060931072
p2389
aV248942692409692160
p2390
aV263690108560084993
p2391
aV255162681680621568
p2392
aV253986695295430656
p2393
aV223965234593935361
p2394
aV266010946995093504
p2395
aV258583530861383681
p2396
aV258383408017862656
p2397
aV253663863935991808
p2398
aV254201225543831554
p2399
aV260568749457940481
p2400
aV243540936381059072
p2401
aV266031478113177600
p2402
aV258405704937906176
p2403
aV247019155260321792
p2404
aV234381243331010560
p2405
aV265988658455252993
p2406
aV237732135736311808
p2407
aV234060316156239872
p2408
aV244401364271263744
p2409
aV258406296338964484
p2410
aV265514513334415360
p2411
aV240842958725861376
p2412
aV253737482338856960
p2413
aV249099748114579456
p2414
aV266032379892727808
p2415
aV265392119361986560
p2416
aV233721445769940992
p2417
aV258355184563023872
p2418
aV265945071260667905
p2419
aV253698680836739072
p2420
aV265327174775619584
p2421
aV239427838317568000
p2422
aV217334920773775363
p2423
aV243836727070969856
p2424
aV243678434058973184
p2425
aV262553217307664384
p2426
aV266031243198599169
p2427
aV226689908998295552
p2428
aV265595417302032385
p2429
aV235190286836453377
p2430
aV231382794125848576
p2431
aV235365872959631360
p2432
aV249309874381549568
p2433
aV236242037920366593
p2434
aV257969476346187776
p2435
aV239518187790684160
p2436
aV258431151797055488
p2437
aV257685022864199680
p2438
aV258658122372104192
p2439
aV258571358982787075
p2440
aV265959919063281664
p2441
aV266009030202372098
p2442
aV258374843236495362
p2443
aV253854004285685760
p2444
aV265620948001095682
p2445
aV262044259463614464
p2446
aV257364036973379584
p2447
aV229793308111695873
p2448
aV258877501231734786
p2449
aV265860128216055808
p2450
aV258385953964556288
p2451
aV265985940546269185
p2452
aV222517130183192578
p2453
aV263750812713504768
p2454
aV266030530204663808
p2455
aV245166946415411200
p2456
aV250675514581344256
p2457
aV234350406833168385
p2458
aV266016185655644160
p2459
aV266033801740816388
p2460
aV258399073730719744
p2461
aV221077926081339394
p2462
aV243905450746195968
p2463
aV260566908150108160
p2464
aV260562051162832899
p2465
aV240648951206907905
p2466
aV265981452615827456
p2467
aV260084751942184960
p2468
aV265875626152562688
p2469
aV247536384238313472
p2470
aV227790171440025600
p2471
aV261539806314651648
p2472
aV241374339306487808
p2473
aV243912975319195648
p2474
aV253674811065237504
p2475
aV244608114127687681
p2476
aV253665080250597376
p2477
aV258880265286479872
p2478
aV235381765177491459
p2479
aV245524812791967745
p2480
aV253674001539424258
p2481
aV265969746338541568
p2482
aV257993878802685952
p2483
aV250033907716747265
p2484
aV258243930645204993
p2485
aV266025434087579649
p2486
aV251394011435257856
p2487
aV266041166934466560
p2488
aV265996568925184000
p2489
aV239629223625629696
p2490
aV258590971548274688
p2491
aV241333386113859585
p2492
aV265852985295388672
p2493
aV266033805918339074
p2494
aV245265655161565185
p2495
aV257892737385390080
p2496
aV266026759508619265
p2497
aV253148841140973568
p2498
aV243904720962478080
p2499
aV263426546872766464
p2500
aV253308845449949184
p2501
aV243903693337014273
p2502
aV258604686939127808
p2503
aV258388684439711744
p2504
aV266003959276265472
p2505
aV238152371430109184
p2506
aV266033671717400577
p2507
aV260545181680562176
p2508
aV253667873682255873
p2509
aV265185344390045696
p2510
aV243941559521918976
p2511
aV265871515722072064
p2512
aV253698714407952384
p2513
aV258402886369816576
p2514
aV243907782800207872
p2515
aV253743522140811265
p2516
aV254077237727469569
p2517
aV265563578319388673
p2518
aV260555805848391683
p2519
aV243178057790263297
p2520
aV266039073989345281
p2521
aV260567554085502976
p2522
aV248313509069344768
p2523
aV252876106514964480
p2524
aV265912942879465475
p2525
aV250797585604964352
p2526
aV266041779290243075
p2527
aV243001880224096257
p2528
aV243903953371291649
p2529
aV223187342196867073
p2530
aV265969524015259650
p2531
aV241376813908119554
p2532
aV245255895016165376
p2533
aV260572511761215488
p2534
aV253839361999790080
p2535
aV259509901590679552
p2536
aV265913295192616961
p2537
aV243547089429200896
p2538
aV253685007405678593
p2539
aV263897445577146368
p2540
aV253665503908855808
p2541
aV265852955918487552
p2542
aV266032262427049985
p2543
aV243913973597089794
p2544
aV262893236950032384
p2545
aV243907052991291393
p2546
aV263328928637267968
p2547
aV234197532828381184
p2548
aV260570972439072768
p2549
aV258379654115770371
p2550
aV265232740000100352
p2551
aV240899070107996160
p2552
aV255050597278023680
p2553
aV265794869006577665
p2554
aV256066029904605184
p2555
aV221283564422045697
p2556
aV253426604729049088
p2557
aV249650451845378049
p2558
aV258375262679465985
p2559
aV232255859474972672
p2560
aV246207607767973888
p2561
aV247763166073864192
p2562
aV253908186300575744
p2563
aV261244367946268672
p2564
aV265963601687355393
p2565
aV227955275993329664
p2566
aV263480871514931200
p2567
aV265954512613801984
p2568
aV264518886265868288
p2569
aV250689397719199744
p2570
aV247492268523667456
p2571
aV253912581964722176
p2572
aV265589188727042050
p2573
aV265975106659041280
p2574
aV265326843434004480
p2575
aV258514542928216064
p2576
aV253694343922204672
p2577
aV266015925608783872
p2578
aV262277475344732160
p2579
aV221379370688847872
p2580
aV243901424239534081
p2581
aV233597755732393984
p2582
aV243918713164795904
p2583
aV246633354756255744
p2584
aV224975772476121089
p2585
aV253287399961001984
p2586
aV266035265565499393
p2587
aV265939610247524353
p2588
aV261664867885404161
p2589
aV265976897639440384
p2590
aV265799386276167680
p2591
aV247240736125378560
p2592
aV248260065260343296
p2593
aV260563124896296960
p2594
aV254333912376025088
p2595
aV258392115418107904
p2596
aV253715894264541184
p2597
aV265957423481774080
p2598
aV264381417935491074
p2599
aV254869424346128384
p2600
aV253678917255299072
p2601
aV258007782954000384
p2602
aV258374700646928385
p2603
aV244184640427020288
p2604
aV239158895325614080
p2605
aV265616963429093376
p2606
aV243751687569944576
p2607
aV258616619700482048
p2608
aV248299256828534784
p2609
aV245242867503730688
p2610
aV265942802121228288
p2611
aV262299734532837376
p2612
aV260565301748436992
p2613
aV265257557726199808
p2614
aV247080257868410880
p2615
aV242287032414646272
p2616
aV265250016355053569
p2617
aV218354883252858880
p2618
aV265949143900512256
p2619
aV218485770690895872
p2620
aV253681131877183489
p2621
aV246710471263133697
p2622
aV255632666005762048
p2623
aV223522341278326784
p2624
aV260929228911026176
p2625
aV247186822550126592
p2626
aV226330134200864768
p2627
aV265583698408271873
p2628
aV264498518687887360
p2629
aV218370645464059905
p2630
aV218473145861021696
p2631
aV258389795938635776
p2632
aV254236080247799808
p2633
aV253160891367956482
p2634
aV252217617551605760
p2635
aV222339383976673280
p2636
aV258391238775037952
p2637
aV241383138943725568
p2638
aV266032560243621888
p2639
aV254018265834213376
p2640
aV260573426119479296
p2641
aV258756873048694784
p2642
aV248270324536320000
p2643
aV246969939263631360
p2644
aV265655341293907969
p2645
aV265991862882533378
p2646
aV266033503953620993
p2647
aV236165483487956993
p2648
aV229041986626269184
p2649
aV255195669881556992
p2650
aV221295828562755584
p2651
aV266034862895538176
p2652
aV243186148594290690
p2653
aV263285224006356994
p2654
aV244042830987812864
p2655
aV251845482144473088
p2656
aV253686672552771584
p2657
aV265993632891416576
p2658
aV255674445501444096
p2659
aV259779230450212864
p2660
aV253976733823414272
p2661
aV253683006710087680
p2662
aV260315405103546368
p2663
aV260575997219442689
p2664
aV253676660753313794
p2665
aV258379490554699776
p2666
aV253852238492078080
p2667
aV253677642203680769
p2668
aV253683421967155201
p2669
aV265814146027757568
p2670
aV248871624131088384
p2671
aV253714392678547456
p2672
aV224902925816836097
p2673
aV253083183480987648
p2674
aV260567273071329281
p2675
aV243176761754546177
p2676
aV251872820630536192
p2677
aV243171221045395456
p2678
aV258387463930785792
p2679
aV265624517349634048
p2680
aV240949502444445696
p2681
aV249532319302565888
p2682
aV259383221031165952
p2683
aV233934847742210049
p2684
aV235537831051804673
p2685
aV218083230757306368
p2686
aV261601710080946176
p2687
aV265572650598940672
p2688
aV258372620280545287
p2689
aV265528706884325377
p2690
aV254294779515510784
p2691
aV260200145654784000
p2692
aV256100796494643200
p2693
aV245280813351063552
p2694
aV243900224643416064
p2695
aV258397362475659265
p2696
aV261144279286689794
p2697
aV218393273734152192
p2698
aV243269736895488000
p2699
aV266031515845132289
p2700
aV260568334217654274
p2701
aV265996505977061376
p2702
aV245987067052568576
p2703
aV262976405787254784
p2704
aV260553738027163648
p2705
aV235220724887994368
p2706
aV262602630382116864
p2707
aV243459575276265472
p2708
aV233066899456536578
p2709
aV258248686973358081
p2710
aV265786019029340160
p2711
aV258386037867429888
p2712
aV258397337309827073
p2713
aV258388722221981697
p2714
aV233579003020193792
p2715
aV265512621711687680
p2716
aV243918172099588096
p2717
aV260463271113535489
p2718
aV255059191402729473
p2719
aV258577033876094976
p2720
aV265873482859048961
p2721
aV248134479409991680
p2722
aV237761994948739072
p2723
aV246395709694291968
p2724
aV262982550434226176
p2725
aV240752395292921856
p2726
aV265307524432031744
p2727
aV258348943417671680
p2728
aV258387598148509696
p2729
aV253666275652431873
p2730
aV258396154524491777
p2731
aV243180473684201472
p2732
aV243181471945347073
p2733
aV265650056491855872
p2734
aV258415758680391681
p2735
aV257648205272064000
p2736
aV265613444416421889
p2737
aV253676199367303169
p2738
aV252444659450773504
p2739
aV240920486232604673
p2740
aV258060987683459072
p2741
aV265900351553687552
p2742
aV235011080999538688
p2743
aV243184986763698176
p2744
aV241376071549870080
p2745
aV247115343204589569
p2746
aV262716560265838593
p2747
aV253684101444419584
p2748
aV262874257703456768
p2749
aV244516640526594049
p2750
aV235791649375145984
p2751
aV253119334203940865
p2752
aV255175881146912768
p2753
aV239931603588104193
p2754
aV253717219652030464
p2755
aV220639621300752385
p2756
aV265946354688344064
p2757
aV255797468594335744
p2758
aV247412144755335168
p2759
aV241599078482464769
p2760
aV266036439958048771
p2761
aV265839718703448064
p2762
aV233236584223346689
p2763
aV265432221127680002
p2764
aV218373682135957505
p2765
aV263629165335556096
p2766
aV245969593594679297
p2767
aV265975479964672000
p2768
aV265853018866593793
p2769
aV262346811409321986
p2770
aV260555860374343680
p2771
aV264335041520353280
p2772
aV263534952866521088
p2773
aV258100502208839682
p2774
aV235447603175776256
p2775
aV243148840243449856
p2776
aV265940252001181696
p2777
aV243916188164431872
p2778
aV253605252706734080
p2779
aV236452591968608256
p2780
aV222414269084471297
p2781
aV248249361404919809
p2782
aV261278778003697665
p2783
aV235690273051648000
p2784
aV258377150107901952
p2785
aV253669081650192384
p2786
aV265684407849988096
p2787
aV243615846633730048
p2788
aV253704372490498048
p2789
aV260612240208691200
p2790
aV260578039837106176
p2791
aV232629706183290880
p2792
aV265763969581600769
p2793
aV265991988741029888
p2794
aV266010477199499264
p2795
aV266031390032801792
p2796
aV265745766293835776
p2797
aV248110819345326080
p2798
aV243875675411476480
p2799
aV258374453199785984
p2800
aV266031473918889985
p2801
aV231941357965570048
p2802
aV266024985318023168
p2803
aV245699606221033472
p2804
aV265981725249781761
p2805
aV253700656353931264
p2806
aV256882191131373568
p2807
aV232221592011300864
p2808
aV266035030667698180
p2809
aV266035005514457089
p2810
aV258398226519060480
p2811
aV255415178773028866
p2812
aV261521489818431488
p2813
aV238164165821345792
p2814
aV242791607190028288
p2815
aV253871674901032960
p2816
aV258428932997672961
p2817
aV250719890321842177
p2818
aV258380983710146561
p2819
aV241518535254355968
p2820
aV221187640693768192
p2821
aV258631937319653376
p2822
aV244917741834870784
p2823
aV261441357644718080
p2824
aV237380833412001793
p2825
aV266041116606988289
p2826
aV251043380199583744
p2827
aV253670193115586562
p2828
aV258391528177807361
p2829
aV265586655388368896
p2830
aV253690766180884481
p2831
aV253667894653775872
p2832
aV234033237750603776
p2833
aV234208735793385473
p2834
aV236335151481749505
p2835
aV266014944162639872
p2836
aV253536076067647488
p2837
aV258629169079021568
p2838
aV266033499759325186
p2839
aV265931079062523904
p2840
aV253818499502329856
p2841
aV249271924331515904
p2842
aV241008088486920192
p2843
aV243176774333251584
p2844
aV253676161618563074
p2845
aV243191164960899072
p2846
aV266026562388889600
p2847
aV255391703249334272
p2848
aV248514835678117888
p2849
aV265544699752886272
p2850
aV257495037640851457
p2851
aV253664614703828993
p2852
aV265565713211748352
p2853
aV234293855023931392
p2854
aV238440419430658049
p2855
aV265998557004304385
p2856
aV234707887346307072
p2857
aV260042674705428480
p2858
aV243917865902804993
p2859
aV265964293726547968
p2860
aV258377095615488002
p2861
aV260562944545419265
p2862
aV232287820075659264
p2863
aV243354549891526656
p2864
aV224328104833855489
p2865
aV265922120029179904
p2866
aV260079454552997889
p2867
aV265952792974352384
p2868
aV255467687248023554
p2869
aV266017615925882880
p2870
aV254246356254859265
p2871
aV258588203320242176
p2872
aV265202687824510976
p2873
aV265487812428701696
p2874
aV261300017959161856
p2875
aV249314001585045504
p2876
aV260554446872920067
p2877
aV265593617945612289
p2878
aV266031524225372160
p2879
aV246880055345704960
p2880
aV241327677674500097
p2881
aV243172592599592960
p2882
aV266016579911815168
p2883
aV238644447183773696
p2884
aV244980887094165504
p2885
aV259724352189247489
p2886
aV253457919385935873
p2887
aV253687683371651074
p2888
aV260571614180147200
p2889
aV258015773069549568
p2890
aV232829044683583488
p2891
aV266029246747656193
p2892
aV266028755988930560
p2893
aV243518752698793984
p2894
aV230695934919573504
p2895
aV253673368207908864
p2896
aV241916012663025664
p2897
aV243552084832710656
p2898
aV261843465539821568
p2899
aV254858858885967872
p2900
aV265644419334680576
p2901
aV246651188970393600
p2902
aV260563305234567168
p2903
aV227423102731165697
p2904
aV253662672753680384
p2905
aV258386436296962048
p2906
aV231122139120558080
p2907
aV266031343887060996
p2908
aV253670369301504001
p2909
aV266033885614309376
p2910
aV266018765156806657
p2911
aV232620524851830784
p2912
aV266030437896441856
p2913
aV261791011586588672
p2914
aV248380148162887682
p2915
aV260497253347770368
p2916
aV265600706298408960
p2917
aV264100504408313859
p2918
aV219318637834682370
p2919
aV253621769892667392
p2920
aV264195111125151744
p2921
aV258366345589190656
p2922
aV258386440499630080
p2923
aV261817695736045569
p2924
aV236542639476989953
p2925
aV259307484488032256
p2926
aV253670394454749185
p2927
aV256567618306195456
p2928
aV258096056242421761
p2929
aV253687733720055808
p2930
aV228238978736848896
p2931
aV222538063941869568
p2932
aV246218550686121986
p2933
aV244418615447785472
p2934
aV253691961557532672
p2935
aV265592900707041281
p2936
aV253969725162414080
p2937
aV246414957376335872
p2938
aV265919787996168192
p2939
aV253671015220125697
p2940
aV254411788030996480
p2941
aV232681396773195776
p2942
aV258591843959328769
p2943
aV263424734950195200
p2944
aV266025819976118272
p2945
aV266030521778319360
p2946
aV258407533654462464
p2947
aV255771086426353664
p2948
aV261840676348628992
p2949
aV243900405002682369
p2950
aV246648504599056384
p2951
aV253663863898259459
p2952
aV259077074583691265
p2953
aV262198140092952576
p2954
aV253689939903000576
p2955
aV229860190466494465
p2956
aV260452437222100992
p2957
aV244605580751286272
p2958
aV258427225903333376
p2959
aV232991775260827649
p2960
aV243811703857491968
p2961
aV260572813738536960
p2962
aV266039287894654976
p2963
aV265582377177325569
p2964
aV260550340645101569
p2965
aV253925764653789186
p2966
aV260567176606539777
p2967
aV250929978802331649
p2968
aV259774612525699072
p2969
aV265859201245519872
p2970
aV263468313772965889
p2971
aV258404614423080960
p2972
aV265913668506628097
p2973
aV253666686698405890
p2974
aV258397857420279808
p2975
aV247351776146231296
p2976
aV246800485208707072
p2977
aV261497716511744000
p2978
aV251036543492444160
p2979
aV258778700223500288
p2980
aV266029494173831168
p2981
aV260559329042780160
p2982
aV266027527062036480
p2983
aV258701176877502464
p2984
aV260381628981997570
p2985
aV258379909989285889
p2986
aV266004848447737856
p2987
aV265747876045529088
p2988
aV250638764106473472
p2989
aV253708961080033280
p2990
aV253682708910338048
p2991
aV238153805865308160
p2992
aV265561296601223168
p2993
aV253662064541839360
p2994
aV266032673481453573
p2995
aV248194986435297280
p2996
aV219478314983751680
p2997
aV251371899098124289
p2998
aV266041162756935680
p2999
aV253677545751470080
p3000
aV265855162134974464
p3001
aV251395995353616384
p3002
aV266032451162341377
p3003
aV227864272200400896
p3004
aV265580544266481666
p3005
aV260548935570042880
p3006
aV249768097907621890
p3007
aV236175063257317376
p3008
aV223358297833615361
p3009
aV266032354701762564
p3010
aV248633299604484097
p3011
aV253306127524184066
p3012
aV263059855668043777
p3013
aV253465334911229952
p3014
aV229758273090363392
p3015
aV231624012743188481
p3016
aV258384687297351681
p3017
aV263222464610455552
p3018
aV227857070588825600
p3019
aV259506739098030080
p3020
aV266002197651783680
p3021
aV258394724271009792
p3022
aV266008929539088384
p3023
aV232135772373938176
p3024
aV266023483773956097
p3025
aV218356087013900289
p3026
aV256562190885195777
p3027
aV253699465159004161
p3028
aV265684210717704192
p3029
aV240905688740679680
p3030
aV265973546382131202
p3031
aV258396355855273985
p3032
aV243487324799897600
p3033
aV243892800721125377
p3034
aV262694242382647297
p3035
aV258389741425291266
p3036
aV221271451246923776
p3037
aV265874732757430272
p3038
aV262377354318462976
p3039
aV244908552093851650
p3040
aV253843426246787072
p3041
aV265657237144469504
p3042
aV243350615630155776
p3043
aV265902838813708289
p3044
aV266031629108117504
p3045
aV243351202824351744
p3046
aV259043193021165568
p3047
aV261898482229575681
p3048
aV266035051651801089
p3049
aV241579461710069760
p3050
aV243176224871047168
p3051
aV247859995755020289
p3052
aV255739541099520000
p3053
aV245614658986315776
p3054
aV260582229942616064
p3055
aV266021512413323264
p3056
aV260065462325506048
p3057
aV266033910784327680
p3058
aV265988796867309568
p3059
aV266001186824540160
p3060
aV243535408292577280
p3061
aV258308044767756290
p3062
aV253663809397485568
p3063
aV219360127898238977
p3064
aV241902674788904961
p3065
aV219148881794056193
p3066
aV266031129956605955
p3067
aV261075727561150465
p3068
aV219554319962353665
p3069
aV253682151072096256
p3070
aV266036284752011265
p3071
aV255473500582711296
p3072
aV253668599280070656
p3073
aV260596146639101952
p3074
aV234735817204056065
p3075
aV219210672280567809
p3076
aV257350296429273091
p3077
aV265965870801620992
p3078
aV253496251155365889
p3079
aV260558142067318784
p3080
aV260562189583273985
p3081
aV243909988974743552
p3082
aV243150803177701376
p3083
aV260416894669029376
p3084
aV259751963275694080
p3085
aV229060244444172288
p3086
aV265664354857398272
p3087
aV263313409720864768
p3088
aV259026289950879748
p3089
aV265881703711662080
p3090
aV265818868843417601
p3091
aV243565112336736256
p3092
aV259026050888126466
p3093
aV262958152159485953
p3094
aV255296035381985280
p3095
aV227141304193265664
p3096
aV247592881525768192
p3097
aV266000264102821888
p3098
aV266033596240900097
p3099
aV260594779300171778
p3100
aV258392480301604864
p3101
aV265530346852974592
p3102
aV230079770677878784
p3103
aV227506019893379073
p3104
aV234388222652854274
p3105
aV253683640041607168
p3106
aV260568342623047683
p3107
aV265094940344848384
p3108
aV227619706541051905
p3109
aV246245612348133376
p3110
aV265956714623414272
p3111
aV259356650144677888
p3112
aV266036368642285568
p3113
aV243040040027054080
p3114
aV266037794701467648
p3115
aV266015522972381184
p3116
aV265052842119819264
p3117
aV252073320923668481
p3118
aV258383441559707648
p3119
aV263294212404019201
p3120
aV266041640882425856
p3121
aV230841527583264768
p3122
aV265971369538379776
p3123
aV256575671369883648
p3124
aV221825694970290177
p3125
aV253683690390056961
p3126
aV265357331804594176
p3127
aV266001442689662976
p3128
aV218518117154947072
p3129
aV247684640310169600
p3130
aV266032405041782784
p3131
aV260548696490528769
p3132
aV240522073510932480
p3133
aV264115884937842690
p3134
aV266036070880276480
p3135
aV266031343861911554
p3136
aV265978013320085504
p3137
aV259392981197545473
p3138
aV235210398528335872
p3139
aV246100514603941888
p3140
aV260556766314627073
p3141
aV261131549561466881
p3142
aV266031624897064962
p3143
aV246857724858605568
p3144
aV230107327267749888
p3145
aV253663717097611264
p3146
aV224644539896442883
p3147
aV253682784428761090
p3148
aV242736682766565376
p3149
aV237753610568601600
p3150
aV230680487302139905
p3151
aV265938637164793856
p3152
aV265848010846650368
p3153
aV253677977760579585
p3154
aV227084903383183360
p3155
aV266015170638262275
p3156
aV253632549224595456
p3157
aV234683153523023872
p3158
aV253692158681440257
p3159
aV265806592090456064
p3160
aV263171168301899776
p3161
aV264224395785031680
p3162
aV248029470794067968
p3163
aV260560599921065984
p3164
aV265321025909170176
p3165
aV260551829643997184
p3166
aV258378760749977600
p3167
aV260573040235118593
p3168
aV218414987633369088
p3169
aV243057706410336256
p3170
aV261310319165591552
p3171
aV266031243236364289
p3172
aV253955242222317568
p3173
aV265776858694569984
p3174
aV265985089081577472
p3175
aV236134294626660352
p3176
aV224338439594708993
p3177
aV259320021258481665
p3178
aV266017452364820480
p3179
aV253842943931203585
p3180
aV265839836143960064
p3181
aV253219938762911744
p3182
aV266032748953743362
p3183
aV265475284013314049
p3184
aV261989507006615552
p3185
aV258385752642166784
p3186
aV227901756703645696
p3187
aV243908680381255681
p3188
aV249871726551388162
p3189
aV266033914999619586
p3190
aV249251691004821504
p3191
aV246059053887930369
p3192
aV265643572106256384
p3193
aV256035868668727296
p3194
aV249052532855431168
p3195
aV260562105676218368
p3196
aV260568141304840192
p3197
aV233986357993820161
p3198
aV261448995476500480
p3199
aV250365454881787904
p3200
aV224949423858401280
p3201
aV233672120759099392
p3202
aV258393377903620096
p3203
aV253679651275276288
p3204
aV260716774830534656
p3205
aV255716715667800064
p3206
aV248169661202571264
p3207
aV253666665731080193
p3208
aV266037782135316481
p3209
aV242710166376701952
p3210
aV223092731306708992
p3211
aV254959937392898048
p3212
aV266005012021379072
p3213
aV261304929484955648
p3214
aV261366422201053184
p3215
aV255067395473944576
p3216
aV266033847882362880
p3217
aV265285995098931201
p3218
aV245940220887957504
p3219
aV249362147983888386
p3220
aV265968349635301378
p3221
aV258378249028128768
p3222
aV265941803885293568
p3223
aV265602698580226049
p3224
aV264938740269584386
p3225
aV265157733291016192
p3226
aV260561417818734592
p3227
aV245379417256386560
p3228
aV237189547954421760
p3229
aV265965560414752769
p3230
aV264354985448443905
p3231
aV218377654125080576
p3232
aV265969461113257984
p3233
aV243912467825192960
p3234
aV265943552914247680
p3235
aV228542004609572864
p3236
aV243147250602213377
p3237
aV260554174234759169
p3238
aV263519110980308992
p3239
aV258220681622323200
p3240
aV253678489469849600
p3241
aV253667437445271553
p3242
aV264096997965963264
p3243
aV234301526376591360
p3244
aV258382002921807872
p3245
aV266032346317328387
p3246
aV266031033521147904
p3247
aV226963985801543680
p3248
aV260563946967277569
p3249
aV258381466046693377
p3250
aV246670415638974464
p3251
aV248899205865824257
p3252
aV233238865941504000
p3253
aV260526974206881792
p3254
aV264445494330261504
p3255
aV247677774226153472
p3256
aV253673485635813376
p3257
aV253676627186298880
p3258
aV219171430355566592
p3259
aV220691488080793604
p3260
aV258380757226119168
p3261
aV266035039068893184
p3262
aV255395788522401793
p3263
aV243422006907916288
p3264
aV253667634598531072
p3265
aV253696109740957697
p3266
aV256579731481300992
p3267
aV257617691697901568
p3268
aV266006459056287744
p3269
aV260564152500748289
p3270
aV259422400049995777
p3271
aV238548884148858880
p3272
aV243183673946554368
p3273
aV260585191133814784
p3274
aV260559136113192962
p3275
aV244545610617876482
p3276
aV265991472837451778
p3277
aV258386432115224576
p3278
aV238086885765947393
p3279
aV233056438866563075
p3280
aV258381025661562881
p3281
aV265816633283596289
p3282
aV257658447733071873
p3283
aV218395140186832896
p3284
aV244233684394328064
p3285
aV243881463517417473
p3286
aV261131729929113601
p3287
aV243894151282835456
p3288
aV252090525967065088
p3289
aV251546273071656960
p3290
aV244508658799628288
p3291
aV253661473157566467
p3292
aV226057563169492994
p3293
aV260766301184729090
p3294
aV265829170058240000
p3295
aV260332010378252288
p3296
aV235936575144484864
p3297
aV260608645698560000
p3298
aV261932514808049664
p3299
aV231977504489996288
p3300
aV234361219711119360
p3301
aV250208982159994880
p3302
aV223897588884176896
p3303
aV242006299267715074
p3304
aV253505541521932288
p3305
aV258388281790697472
p3306
aV253642091295547392
p3307
aV245343358829080576
p3308
aV246793287787225088
p3309
aV265838091334459393
p3310
aV232708936569065472
p3311
aV256577697222909952
p3312
aV260568254513311744
p3313
aV260580707427024896
p3314
aV220651260481773568
p3315
aV221988710810517505
p3316
aV259025048474632192
p3317
aV266004974293639169
p3318
aV265802179674247168
p3319
aV237614804255264769
p3320
aV247064759898345473
p3321
aV243929278591426560
p3322
aV263285098177257474
p3323
aV253724433846501376
p3324
aV254052571034042369
p3325
aV243910290972999680
p3326
aV259129151074754560
p3327
aV260115320025526272
p3328
aV253681731650060288
p3329
aV256060522791829504
p3330
aV254399901352488960
p3331
aV241507135140282368
p3332
aV260063923049492482
p3333
aV258397425386000386
p3334
aV260556783112822784
p3335
aV239327372124516353
p3336
aV257993635541417984
p3337
aV218409413415940097
p3338
aV265829258126053376
p3339
aV252765632729325569
p3340
aV249691593785876480
p3341
aV245971304874913792
p3342
aV265848484794617856
p3343
aV245937305842483200
p3344
aV258370569270083585
p3345
aV262303895294967808
p3346
aV257991232230412288
p3347
aV263802335535448064
p3348
aV243928162902368258
p3349
aV255451690193518592
p3350
aV258388218905509889
p3351
aV240856770556358658
p3352
aV262560976770043904
p3353
aV263500303733776384
p3354
aV265583975211335680
p3355
aV230696794756100096
p3356
aV243903311642759169
p3357
aV258375401104109568
p3358
aV253678833402773505
p3359
aV228165788119465984
p3360
aV246761624998928387
p3361
aV233163448140308480
p3362
aV235793020887375872
p3363
aV243908298707968000
p3364
aV247488325882085376
p3365
aV259485620764827648
p3366
aV253670180532658177
p3367
aV265776342778408960
p3368
aV256580121543196672
p3369
aV253687918235906048
p3370
aV223459460281147392
p3371
aV265891644186955776
p3372
aV240708048916709376
p3373
aV264088462561517568
p3374
aV265460377473654787
p3375
aV255842351853998080
p3376
aV247722309354393600
p3377
aV262300636283023361
p3378
aV258378240635330560
p3379
aV258403402290196481
p3380
aV227472171860107264
p3381
aV266016533787049984
p3382
aV265074807698255873
p3383
aV234152209179361280
p3384
aV218409837023866880
p3385
aV255702446658170881
p3386
aV234540438126739456
p3387
aV233020854387240961
p3388
aV253687725310504960
p3389
aV253673607270649856
p3390
aV258389988872433665
p3391
aV266037668880740352
p3392
aV253609631581081600
p3393
aV235225581913006080
p3394
aV217281602810683392
p3395
aV243186974872199168
p3396
aV243907065582583808
p3397
aV253662194577833985
p3398
aV266033818501259264
p3399
aV254025412911448066
p3400
aV227380740239814656
p3401
aV265851898983223297
p3402
aV243528642884407297
p3403
aV236563380339630080
p3404
aV243094092022706176
p3405
aV253675398242635777
p3406
aV265982597665005568
p3407
aV262263969702608896
p3408
aV265676178617139200
p3409
aV260427166527942656
p3410
aV246111977607397376
p3411
aV266032530870902784
p3412
aV219478105281150976
p3413
aV232830873383346178
p3414
aV258386180440203265
p3415
aV265979313533366275
p3416
aV259836977648656384
p3417
aV247819671728951296
p3418
aV255708725535453184
p3419
aV258763730714763264
p3420
aV251507341562880000
p3421
aV241654564921675779
p3422
aV258403293213102080
p3423
aV259699542868516867
p3424
aV264094200373604352
p3425
aV221324320444645376
p3426
aV232893112652034048
p3427
aV258641496125886464
p3428
aV235841452545028096
p3429
aV258377246576869376
p3430
aV243695349695393792
p3431
aV266037576614428672
p3432
aV266029926220705792
p3433
aV253665449349357568
p3434
aV262673665102077952
p3435
aV261281168761180160
p3436
aV265988427776925697
p3437
aV265892726334185474
p3438
aV238077607973904384
p3439
aV246677252350308352
p3440
aV266021705380683778
p3441
aV243182390481129472
p3442
aV266031167722115072
p3443
aV265430119743643648
p3444
aV260564093780504577
p3445
aV265881242325643264
p3446
aV246721338683822082
p3447
aV219419330482417665
p3448
aV236062978875727872
p3449
aV265841274802810880
p3450
aV265981142266703872
p3451
aV258379549266571264
p3452
aV242111903466405889
p3453
aV264033311691771904
p3454
aV253672277697236992
p3455
aV253664165904924673
p3456
aV264961884430680064
p3457
aV265981402292559873
p3458
aV253700958347993089
p3459
aV241367326392475649
p3460
aV247043545104539648
p3461
aV253564882543341568
p3462
aV234055752761868288
p3463
aV243184718328262657
p3464
aV258380849496612864
p3465
aV266040017720328192
p3466
aV253943640756461569
p3467
aV265545651851493376
p3468
aV253672407708094465
p3469
aV243897385095401472
p3470
aV230764184638464000
p3471
aV243936589254893568
p3472
aV266037618574245889
p3473
aV248021019300855808
p3474
aV259037119664762881
p3475
aV233371921817956353
p3476
aV232877014946816001
p3477
aV260572255917056003
p3478
aV255462557614211075
p3479
aV231486456353415168
p3480
aV247852362109157376
p3481
aV257536276041981953
p3482
aV254712347636146176
p3483
aV245599710503653377
p3484
aV244655107092918275
p3485
aV253668884501127168
p3486
aV265881343001493505
p3487
aV262965156676505601
p3488
aV251138658046984192
p3489
aV259685693293490177
p3490
aV266031121572196352
p3491
aV252911112180334592
p3492
aV253664258175426560
p3493
aV243550482612768769
p3494
aV266020187021651968
p3495
aV265812292157984768
p3496
aV243914753712480256
p3497
aV266025446687256578
p3498
aV253858844546039809
p3499
aV266025383760125952
p3500
aV243184860922015744
p3501
aV255774320268288001
p3502
aV265570352111960064
p3503
aV265175865263022080
p3504
aV266041833849761792
p3505
aV228223321408405505
p3506
aV260573023441125377
p3507
aV250659588821622784
p3508
aV243423328101093376
p3509
aV231470312485683200
p3510
aV243919744942620672
p3511
aV253674152555327490
p3512
aV243378805555724288
p3513
aV266030765047951360
p3514
aV258397618344968192
p3515
aV253188347277742080
p3516
aV243709081838297088
p3517
aV223724674503294978
p3518
aV266014692508573696
p3519
aV240084548858306561
p3520
aV258421471335043072
p3521
aV265944911847755778
p3522
aV253672588088311808
p3523
aV244057477514145792
p3524
aV240854899892572160
p3525
aV222426117976494080
p3526
aV254435213202042881
p3527
aV243098919662399488
p3528
aV250062613529100291
p3529
aV265421726941315073
p3530
aV258768839385419776
p3531
aV265777584309145600
p3532
aV217404743386009600
p3533
aV245270642184839168
p3534
aV260843002401013761
p3535
aV242744626782564352
p3536
aV266041615712403456
p3537
aV241639532536152065
p3538
aV251454916953006080
p3539
aV237609901109678080
p3540
aV260897868087443456
p3541
aV258385781985513472
p3542
aV253688987787591680
p3543
aV265931968221433856
p3544
aV243902174990577664
p3545
aV253533718864592896
p3546
aV264429421761540096
p3547
aV260571890974863360
p3548
aV256604964405800960
p3549
aV221280523530665984
p3550
aV266033818539003904
p3551
aV238350380302487552
p3552
aV265865597567500289
p3553
aV254253159420145666
p3554
aV266034003067408384
p3555
aV243195904545419264
p3556
aV243902695105236992
p3557
aV233304120906366976
p3558
aV261837866169139200
p3559
aV246210774442328064
p3560
aV234309948547420161
p3561
aV258404190802567169
p3562
aV243550843343872000
p3563
aV265517466124447744
p3564
aV264172977795514368
p3565
aV261594248384757761
p3566
aV253676203578368000
p3567
aV265993486090772482
p3568
aV226775992897765376
p3569
aV258405381980688385
p3570
aV265631865803767808
p3571
aV253323651343085568
p3572
aV243300984430944256
p3573
aV246410079371415554
p3574
aV231080070222077954
p3575
aV231843664261955584
p3576
aV243561618485690370
p3577
aV266037278806253568
p3578
aV260261319561838593
p3579
aV244592637150121984
p3580
aV265850556793372673
p3581
aV248982219543150593
p3582
aV253709695074852864
p3583
aV222905317225271296
p3584
aV253676488753299459
p3585
aV260847876199043072
p3586
aV266032426009120768
p3587
aV237961593512685570
p3588
aV237249593610493952
p3589
aV246020571157118977
p3590
aV254720228737556480
p3591
aV228854715138596865
p3592
aV248953299825487873
p3593
aV219925469741596673
p3594
aV228259866362388480
p3595
aV241020885287440384
p3596
aV217319909384925184
p3597
aV246017249276743680
p3598
aV227793954681262080
p3599
aV265429654175899648
p3600
aV266014382113308672
p3601
aV260387048005984256
p3602
aV252516075869204480
p3603
aV265551406432407553
p3604
aV258398847238291457
p3605
aV265861067714994176
p3606
aV243375160705548288
p3607
aV243895849984356352
p3608
aV266002948423827457
p3609
aV242784778863136770
p3610
aV253681329009459202
p3611
aV251115358663098368
p3612
aV241031169729236992
p3613
aV229696205788172288
p3614
aV246303128834682881
p3615
aV258368774103764992
p3616
aV256570948621307904
p3617
aV249215406064140289
p3618
aV248300284424638464
p3619
aV249243973464502272
p3620
aV241373252944023552
p3621
aV266032547639730176
p3622
aV253985629963161602
p3623
aV235210234946277376
p3624
aV265507320136613888
p3625
aV230502317445742593
p3626
aV218383899456307203
p3627
aV237715396269076480
p3628
aV265988834603442177
p3629
aV256576392802734080
p3630
aV246530443351060480
p3631
aV244442204217688065
p3632
aV253315522794508288
p3633
aV258388445381160960
p3634
aV243552374256435200
p3635
aV260524856053997568
p3636
aV248827625882124288
p3637
aV265991019831644162
p3638
aV257341534528225281
p3639
aV235735332425965569
p3640
aV243188417695993856
p3641
aV254255151735521280
p3642
aV243557482906148864
p3643
aV249908560941699072
p3644
aV257338183262543872
p3645
aV261218824618115073
p3646
aV248624659317284864
p3647
aV265979007344971776
p3648
aV253698286584737792
p3649
aV266036318310629377
p3650
aV254731880501489665
p3651
aV265987538580303872
p3652
aV266040000930533377
p3653
aV244278483759558656
p3654
aV255913101373865984
p3655
aV242791607190028288
p3656
aV265979246445481985
p3657
aV244435589791883264
p3658
aV258583308546502657
p3659
aV242257412244000768
p3660
aV260569571537350657
p3661
aV243897376710987777
p3662
aV258377322099515393
p3663
aV238545860043079680
p3664
aV266030752473444352
p3665
aV258376164442251264
p3666
aV265136015168139266
p3667
aV265905674150621185
p3668
aV253674148340060161
p3669
aV248802699150254081
p3670
aV263004004320153600
p3671
aV231779780805156864
p3672
aV256572131410853888
p3673
aV264094561108885504
p3674
aV264269388079824896
p3675
aV258372918076137472
p3676
aV266024154858405888
p3677
aV243920155996991488
p3678
aV245359209103892480
p3679
aV251033397756059650
p3680
aV265898199892496384
p3681
aV260570561405673472
p3682
aV265942697284616192
p3683
aV265585325768859648
p3684
aV260567709287337985
p3685
aV257892728971620352
p3686
aV253663868096741377
p3687
aV265211172909899777
p3688
aV247824293856153600
p3689
aV237382569853849600
p3690
aV265619534512263169
p3691
aV222515167240519682
p3692
aV261418465129291776
p3693
aV244499968172388354
p3694
aV243554194588594176
p3695
aV226028584723152896
p3696
aV263372717183598592
p3697
aV243221787603775488
p3698
aV243501778342117376
p3699
aV250779411710885891
p3700
aV241732943888932864
p3701
aV260550663627476992
p3702
aV242817091785355265
p3703
aV251944836800851968
p3704
aV258400122323468289
p3705
aV228924713882226690
p3706
aV257933073994379264
p3707
aV256574698299719681
p3708
aV226012436648562689
p3709
aV266034820956700673
p3710
aV250467439375175680
p3711
aV250634443977543681
p3712
aV223608983003480064
p3713
aV218398030074871810
p3714
aV253678661411143680
p3715
aV231898601238966272
p3716
aV247812012938231808
p3717
aV256046387974774785
p3718
aV262181404815806465
p3719
aV266034930025365505
p3720
aV247812675621507072
p3721
aV266036364477345793
p3722
aV258322947129888770
p3723
aV264059849019621376
p3724
aV255783157654233088
p3725
aV265623070314741761
p3726
aV265194680910766080
p3727
aV243267937505517571
p3728
aV265982874493259776
p3729
aV266000821911711744
p3730
aV265517633925947392
p3731
aV247868078178852864
p3732
aV243496409666551808
p3733
aV256578984886796288
p3734
aV218351611708321792
p3735
aV253665050911453184
p3736
aV246941329953812482
p3737
aV265898795504635904
p3738
aV219858574795476992
p3739
aV234381029434073088
p3740
aV265816821989531648
p3741
aV227556716471017473
p3742
aV253678720135602176
p3743
aV265696596497399808
p3744
aV265310879912980480
p3745
aV223150155518586881
p3746
aV253689507910668288
p3747
aV261612229395361792
p3748
aV264202077885042688
p3749
aV261274344624361474
p3750
aV219920776315408385
p3751
aV263363644899852288
p3752
aV266032577008267266
p3753
aV264441161601675264
p3754
aV249335040184573952
p3755
aV246197650477694977
p3756
aV253677185045504000
p3757
aV256048128615133184
p3758
aV256805032702398464
p3759
aV266040047063670785
p3760
aV255447953047687168
p3761
aV265997378409070592
p3762
aV264178958864617472
p3763
aV265901169447153664
p3764
aV218357760541196288
p3765
aV261903855133011970
p3766
aV265998997397835778
p3767
aV258391561753206785
p3768
aV265850024129343488
p3769
aV254620068778999808
p3770
aV223748460380295169
p3771
aV261468142457458689
p3772
aV241800442831585280
p3773
aV258406782861447168
p3774
aV259780115431563264
p3775
aV266038755222224896
p3776
aV240634191451131905
p3777
aV248916176023986177
p3778
aV242031624454275073
p3779
aV253672256717348864
p3780
aV266010380768268288
p3781
aV263872434954973185
p3782
aV257643050455683072
p3783
aV256581514047922176
p3784
aV266039883498405889
p3785
aV255653956326420480
p3786
aV258408779366936576
p3787
aV239495614038151171
p3788
aV264977864741498880
p3789
aV258373836628692992
p3790
aV262965085352390656
p3791
aV258400084587343873
p3792
aV253689868616609792
p3793
aV242011194028851201
p3794
aV244897810489679872
p3795
aV248538453778771968
p3796
aV222356723208429569
p3797
aV265943108301230080
p3798
aV241018414863368192
p3799
aV230013890761723905
p3800
aV258326503899684868
p3801
aV262439857832464384
p3802
aV266032417624702976
p3803
aV266016718353211393
p3804
aV260564735525781504
p3805
aV262168922558717952
p3806
aV265808513106862081
p3807
aV241006570148868096
p3808
aV258734962004619264
p3809
aV265968278319554560
p3810
aV265959692591833088
p3811
aV253682381750423553
p3812
aV266017481720741889
p3813
aV263020785701113856
p3814
aV265591181017239553
p3815
aV258344925266051073
p3816
aV225050712105693184
p3817
aV252845173522956288
p3818
aV243183028032118784
p3819
aV248138208137867266
p3820
aV253671501734244354
p3821
aV231862312120770562
p3822
aV258386184638705664
p3823
aV246771225723039744
p3824
aV265985021993697281
p3825
aV259866782360293377
p3826
aV265952314802720769
p3827
aV265887886115749888
p3828
aV264503887422177281
p3829
aV261283228172828672
p3830
aV265992374604419072
p3831
aV258394497770192896
p3832
aV260974586101903360
p3833
aV258389376512454656
p3834
aV243903575900696576
p3835
aV265817644110839810
p3836
aV258256832315928579
p3837
aV260739768013443072
p3838
aV260559291298234368
p3839
aV253506560750395392
p3840
aV266020166066905088
p3841
aV265995386127257600
p3842
aV258316051694100480
p3843
aV265182223819493377
p3844
aV218348260430069762
p3845
aV263323534783287296
p3846
aV265306933051928576
p3847
aV259711580508418048
p3848
aV258381285716795392
p3849
aV253674181894483970
p3850
aV259477563519430656
p3851
aV234445277791137792
p3852
aV251681803612585984
p3853
aV261537348481847296
p3854
aV241177592886071296
p3855
aV241379255026581504
p3856
aV253692414525599744
p3857
aV261847701786877952
p3858
aV259789087060410369
p3859
aV266005314011283458
p3860
aV260701885059723266
p3861
aV242075782095179777
p3862
aV248186551677370370
p3863
aV252573105787113472
p3864
aV259654387012599808
p3865
aV263135508320882689
p3866
aV243887671091552259
p3867
aV222029303276257281
p3868
aV248330328245166080
p3869
aV261096686506618880
p3870
aV245182691828461568
p3871
aV253677365371207681
p3872
aV266035018109956096
p3873
aV247386383352729600
p3874
aV265858844721311745
p3875
aV265174560805122048
p3876
aV232952831169146881
p3877
aV243898173624549378
p3878
aV263946221129981952
p3879
aV264349830648848384
p3880
aV255399479501545472
p3881
aV265394120032399360
p3882
aV265629886088110080
p3883
aV261997790777978880
p3884
aV253590228726579201
p3885
aV262650135077588992
p3886
aV266012662444466176
p3887
aV265343553520160768
p3888
aV265982937424596992
p3889
aV266041116594413569
p3890
aV266024507167363074
p3891
aV265977816179412992
p3892
aV265178369254096896
p3893
aV249573217965060096
p3894
aV265520527995727874
p3895
aV245849498084061184
p3896
aV258397794501529600
p3897
aV242270984994951171
p3898
aV266031578772275200
p3899
aV265992965997080576
p3900
aV243723682189561857
p3901
aV266015485236228097
p3902
aV251514413159419905
p3903
aV260567579263909889
p3904
aV258978504278958080
p3905
aV231218440315232256
p3906
aV231088815371075586
p3907
aV241478437712326656
p3908
aV253665084449107968
p3909
aV227789781344612352
p3910
aV243182109475368960
p3911
aV258381080174940162
p3912
aV265143430685011968
p3913
aV256707280261742592
p3914
aV218385153561595905
p3915
aV258382187467010049
p3916
aV260188112179843073
p3917
aV221089485553795073
p3918
aV265827261628956672
p3919
aV247093662843015168
p3920
aV217845531152625666
p3921
aV256575067419463680
p3922
aV245321741369495552
p3923
aV262049938547032065
p3924
aV265953543721201664
p3925
aV247125736706691072
p3926
aV219242385387945984
p3927
aV242705728832434176
p3928
aV245680123712516096
p3929
aV253638018601213953
p3930
aV266007453114707968
p3931
aV258380056777351168
p3932
aV260618267406774272
p3933
aV240120984785543168
p3934
aV265832261243518977
p3935
aV243490801873727488
p3936
aV260572327216029696
p3937
aV250179638813417472
p3938
aV258127773602816001
p3939
aV243188853903609857
p3940
aV245334806639042560
p3941
aV260560910303760384
p3942
aV258381294097010688
p3943
aV243426574483984384
p3944
aV245704161235189760
p3945
aV260458065957105664
p3946
aV265853505389096960
p3947
aV218347933299519491
p3948
aV266016001131421696
p3949
aV240649244778840064
p3950
aV257237062787428355
p3951
aV251855951118860288
p3952
aV235840747897761792
p3953
aV246453607887671296
p3954
aV265844567323049984
p3955
aV257845056520744962
p3956
aV258398574616911874
p3957
aV265866742625103873
p3958
aV257824068236103680
p3959
aV266007172100534272
p3960
aV246619412914925568
p3961
aV220896253981102081
p3962
aV260538416251428864
p3963
aV253666208526786560
p3964
aV224619978052214785
p3965
aV263985404313743361
p3966
aV265922073879265280
p3967
aV243896655320064000
p3968
aV265975417037541378
p3969
aV262283976520126464
p3970
aV265451418419339264
p3971
aV261281428820619264
p3972
aV253304143614189568
p3973
aV240133638979723265
p3974
aV265507550814957569
p3975
aV266041187926941696
p3976
aV258390181831376896
p3977
aV263037533561184256
p3978
aV266012817621127169
p3979
aV240948172820717568
p3980
aV243915001205776385
p3981
aV261973409305616386
p3982
aV265846136013729793
p3983
aV261220737245925376
p3984
aV264382470689021952
p3985
aV241969712349708288
p3986
aV253687897264361473
p3987
aV265886275498803200
p3988
aV231217341411778560
p3989
aV258378060271865856
p3990
aV232074183197212672
p3991
aV265647871255261184
p3992
aV266041259204960257
p3993
aV258380266505125888
p3994
aV264201570391035904
p3995
aV253308673496076288
p3996
aV265990986306560000
p3997
aV245957606265475072
p3998
aV240643284681236480
p3999
aV258390739686416384
p4000
aV258309680529567744
p4001
aV254256913318027264
p4002
aV250232113750765568
p4003
aV260953031577849856
p4004
aV265747116880691200
p4005
aV265902876537270272
p4006
aV260548465791234048
p4007
aV266027342525255682
p4008
aV243184663802298368
p4009
aV243556644045340672
p4010
aV258009112548356096
p4011
aV236299416007487488
p4012
aV241688140341972993
p4013
aV243893228535947265
p4014
aV266002591941533697
p4015
aV260700840694779906
p4016
aV253688908104232960
p4017
aV227577755104079872
p4018
aV256574308242046977
p4019
aV251286033277276160
p4020
aV246059796288114688
p4021
aV244036313047781376
p4022
aV235079863378268160
p4023
aV218375217226059776
p4024
aV257970541703593985
p4025
aV242783109551120385
p4026
aV218103526998540290
p4027
aV265907595133476864
p4028
aV230704348668252161
p4029
aV265316370227548160
p4030
aV243560213398040576
p4031
aV265825554538852353
p4032
aV260589385454600192
p4033
aV265852846904328192
p4034
aV261834418442870789
p4035
aV221371015664635904
p4036
aV260198409196150786
p4037
aV260550038651023360
p4038
aV230762955699019776
p4039
aV254105553482153985
p4040
aV253675310153867264
p4041
aV256581748916367360
p4042
aV261312672195301376
p4043
aV261874281112297473
p4044
aV266040080618102785
p4045
aV265149185278504960
p4046
aV263717862273855488
p4047
aV253682595668295680
p4048
aV252710381171118081
p4049
aV258395730899767296
p4050
aV266031008334360576
p4051
aV253685129027936256
p4052
aV261865259151806464
p4053
aV243902854501392384
p4054
aV264987020894564352
p4055
aV231641117114908672
p4056
aV253675381469634561
p4057
aV243924933284098048
p4058
aV243411760185483264
p4059
aV263686635668004864
p4060
aV260549396943482880
p4061
aV242211711107604480
p4062
aV246737369338880002
p4063
aV265485396513804288
p4064
aV258385681355792387
p4065
aV260117752721838080
p4066
aV249189942448779265
p4067
aV266038889414799360
p4068
aV248567453217591296
p4069
aV261510236505001987
p4070
aV243159682536054784
p4071
aV258397635097001984
p4072
aV255422137110765568
p4073
aV266032262452244482
p4074
aV244903950975909889
p4075
aV266041770901659648
p4076
aV261474236797956096
p4077
aV258356254106324992
p4078
aV266014734439030786
p4079
aV253811683758333953
p4080
aV243900757345202179
p4081
aV260553050165501953
p4082
aV240547843314708480
p4083
aV260888661590175745
p4084
aV265967007432839168
p4085
aV226245753213952000
p4086
aV232015391646420993
p4087
aV265542791352942592
p4088
aV265978902483193856
p4089
aV261630675944361986
p4090
aV261582756012781569
p4091
aV253681723261464576
p4092
aV243904968422199296
p4093
aV253685338755694593
p4094
aV265461228904775680
p4095
aV248017647046909952
p4096
aV253668385362178048
p4097
aV258822245458259968
p4098
aV232132597269008384
p4099
aV249285606146981888
p4100
aV254573465837907969
p4101
aV266027006989316097
p4102
aV265914213749383169
p4103
aV265851005592289280
p4104
aV258385169646497792
p4105
aV258397798666473474
p4106
aV244158816093089793
p4107
aV218349686501814272
p4108
aV254247203516850178
p4109
aV234714971508994049
p4110
aV263413506769039363
p4111
aV228488023921270784
p4112
aV243898433671417857
p4113
aV261637755921125376
p4114
aV253673426911391744
p4115
aV265099482792869888
p4116
aV264091159507369984
p4117
aV238234676270100481
p4118
aV230356309537615873
p4119
aV243911217909997568
p4120
aV253693962261512193
p4121
aV245561592647909376
p4122
aV218032509034840065
p4123
aV258749860172427264
p4124
aV265990457790705664
p4125
aV265619643564175360
p4126
aV253659543790288897
p4127
aV262610658267377664
p4128
aV260861063074029568
p4129
aV233571004457287680
p4130
aV265572277310078976
p4131
aV251234216862429185
p4132
aV258383114441740288
p4133
aV266032761553424384
p4134
aV253689159783419905
p4135
aV265913798530048000
p4136
aV265863051616612352
p4137
aV266033508160503808
p4138
aV266023055938162688
p4139
aV241512176706256897
p4140
aV247579166143307776
p4141
aV265983642080251904
p4142
aV259248466449022976
p4143
aV257686285324529665
p4144
aV258383441563906049
p4145
aV253700413080092674
p4146
aV265787621253459968
p4147
aV253685447820181505
p4148
aV265206865338720258
p4149
aV253582649602473984
p4150
aV258383819084812288
p4151
aV254060275966304256
p4152
aV265201245000724480
p4153
aV258393524670697472
p4154
aV265891375764086784
p4155
aV265912892556181505
p4156
aV253661150196158466
p4157
aV260540291113705472
p4158
aV257659429221171201
p4159
aV253683702989717505
p4160
aV234741081059758081
p4161
aV266024368746930176
p4162
aV266041519281168384
p4163
aV258767388160454656
p4164
aV265543684735516672
p4165
aV233921207873966080
p4166
aV265888439763865600
p4167
aV241876716245635072
p4168
aV259808850641813504
p4169
aV265890054562525186
p4170
aV263103254123122690
p4171
aV258349207667220480
p4172
aV266029401915916290
p4173
aV241587623850827776
p4174
aV264035106837123073
p4175
aV262037393375391744
p4176
aV266030198850469888
p4177
aV232679232508153856
p4178
aV233709299040391169
p4179
aV266035051643420673
p4180
aV258376839762939905
p4181
aV263765257888100352
p4182
aV248974745301831680
p4183
aV226221078115131392
p4184
aV261379328049291264
p4185
aV253946744558202880
p4186
aV265857380946960384
p4187
aV249152130814984193
p4188
aV253686081147510784
p4189
aV263993386107826177
p4190
aV253670335726116865
p4191
aV243226824954482688
p4192
aV265975194751995904
p4193
aV219060054790385664
p4194
aV255430831911366656
p4195
aV254743893009117185
p4196
aV230631401354059776
p4197
aV258400248169365504
p4198
aV242650313658617856
p4199
aV245664059515617280
p4200
aV265809289053081602
p4201
aV260044503409373184
p4202
aV265809494557212672
p4203
aV266033835278491651
p4204
aV263330497323728896
p4205
aV228228664918159361
p4206
aV243910731395903488
p4207
aV243687237898883074
p4208
aV230739316576505857
p4209
aV261511964533075968
p4210
aV258408993280651264
p4211
aV258385257731080192
p4212
aV262926556475826177
p4213
aV262396018983854081
p4214
aV258645593969262593
p4215
aV245607847440830464
p4216
aV261119860027817984
p4217
aV243724223250571264
p4218
aV238009039458545665
p4219
aV261633767112851458
p4220
aV245454126199218176
p4221
aV251111940301127680
p4222
aV254095319380398080
p4223
aV258392396411334658
p4224
aV265273865159196673
p4225
aV258385798779502592
p4226
aV262258265461760000
p4227
aV253909117473787905
p4228
aV241122601366327296
p4229
aV243904305692831744
p4230
aV258027915604787201
p4231
aV247377168441692160
p4232
aV261886780146601985
p4233
aV244187601572077568
p4234
aV258388395041120259
p4235
aV234362092151525377
p4236
aV266012771521540096
p4237
aV253689537233027072
p4238
aV241392680964345857
p4239
aV229290272620679168
p4240
aV257539816030347265
p4241
aV256589483246489600
p4242
aV249506385920921601
p4243
aV218464237163528192
p4244
aV247856640299245569
p4245
aV258375262675283968
p4246
aV266032568636432385
p4247
aV253657333396275200
p4248
aV258394866847977472
p4249
aV253676195156213761
p4250
aV248574268961595392
p4251
aV246004473435148288
p4252
aV240256624395165696
p4253
aV243203450094104578
p4254
aV243013901116112896
p4255
aV260576672514990080
p4256
aV251731057311903744
p4257
aV220416413020585984
p4258
aV262278683316862976
p4259
aV258380027417227265
p4260
aV243783400689917952
p4261
aV258377481457909761
p4262
aV253676673332035584
p4263
aV222467398308077568
p4264
aV265780344148606976
p4265
aV258674073280860160
p4266
aV265503109034438658
p4267
aV243181438378311681
p4268
aV254366741176655872
p4269
aV249673482768633856
p4270
aV233484996063674368
p4271
aV255872802513637377
p4272
aV235152076739600384
p4273
aV265600043589980160
p4274
aV254436014326677504
p4275
aV243082180174163968
p4276
aV258351590015123456
p4277
aV240928623182368768
p4278
aV238046939189501952
p4279
aV265708181127299072
p4280
aV263416216293609473
p4281
aV253695296033411072
p4282
aV249001681117913088
p4283
aV266030026888192001
p4284
aV247271509750599680
p4285
aV253713637703839744
p4286
aV266032476361723904
p4287
aV266033990497091585
p4288
aV265293012140183553
p4289
aV243917165462446080
p4290
aV265985948913905665
p4291
aV264488964071780353
p4292
aV231181425599184896
p4293
aV247563387180032000
p4294
aV260563930211033088
p4295
aV244255327032324097
p4296
aV262620842037477377
p4297
aV264004542935494656
p4298
aV260878196839444481
p4299
aV245339734958809088
p4300
aV253672059580870657
p4301
aV243535978726293504
p4302
aV253681383522848768
p4303
aV258398679491284993
p4304
aV244640112477077505
p4305
aV258393264632238080
p4306
aV258383919735504896
p4307
aV249154504791048192
p4308
aV243190888136863744
p4309
aV260552819503935488
p4310
aV243399361822859264
p4311
aV266001891480174593
p4312
aV251217531933712384
p4313
aV243540512756363264
p4314
aV265890746631061504
p4315
aV259307346075987968
p4316
aV265984006984704000
p4317
aV265977350607474688
p4318
aV246061746618515457
p4319
aV254485494535172096
p4320
aV266036498665705472
p4321
aV265997957227229184
p4322
aV243912786575507456
p4323
aV243901508100448258
p4324
aV225261475894267904
p4325
aV250334349919133696
p4326
aV266037433991311360
p4327
aV224316251739131906
p4328
aV265622650909511680
p4329
aV248411760632160256
p4330
aV265626551599656962
p4331
aV258423132275224576
p4332
aV265983981789528065
p4333
aV230665857532043264
p4334
aV258392455152562176
p4335
aV228986248520429569
p4336
aV258950209474789376
p4337
aV265654808638279680
p4338
aV260572046180896768
p4339
aV247090793947484161
p4340
aV226132716721164288
p4341
aV266021004910931969
p4342
aV265840926688149504
p4343
aV243909548593782784
p4344
aV266032673494011905
p4345
aV251088280257458176
p4346
aV251048455336759298
p4347
aV258382271386636288
p4348
aV258400013267382272
p4349
aV253982190600343552
p4350
aV265635514823110657
p4351
aV253682599858434049
p4352
aV266033805939322880
p4353
aV266037568213237760
p4354
aV249142446146060288
p4355
aV260561891783483392
p4356
aV243179672584732672
p4357
aV248076560236679168
p4358
aV232519727317151745
p4359
aV258061226746208256
p4360
aV253682251735392258
p4361
aV253686915826597888
p4362
aV265883935068790785
p4363
aV266019046166761473
p4364
aV245238497026404352
p4365
aV251363799884509184
p4366
aV253682251747954689
p4367
aV266032556040933376
p4368
aV244919859950006273
p4369
aV252964581176123392
p4370
aV264346840105877505
p4371
aV265563322458456064
p4372
aV255420845281902593
p4373
aV253357038015508481
p4374
aV265522130224029697
p4375
aV258238041834000384
p4376
aV266039224988483584
p4377
aV266032371499945986
p4378
aV260905925362188289
p4379
aV258380878865104896
p4380
aV264123061391998977
p4381
aV258206257398312961
p4382
aV265989509882208256
p4383
aV253682671178366976
p4384
aV234729303445737472
p4385
aV265983910486343680
p4386
aV266012863796228097
p4387
aV260564639027437568
p4388
aV249217499005071360
p4389
aV243323990200958977
p4390
aV240572199621255168
p4391
aV266031067067211778
p4392
aV266032677684129792
p4393
aV233385368760750080
p4394
aV265981469430784001
p4395
aV265850451944165376
p4396
aV249648807678189568
p4397
aV266005880254889984
p4398
aV255501698892701696
p4399
aV234281863508787201
p4400
aV265919708279226370
p4401
aV219558501691817984
p4402
aV260304919330975744
p4403
aV265664124179083264
p4404
aV266031411008532482
p4405
aV262552424546447362
p4406
aV260566832669417474
p4407
aV266033625563291648
p4408
aV238150089716146176
p4409
aV260922991989387265
p4410
aV265976448811147264
p4411
aV258378592956866560
p4412
aV248056658293571585
p4413
aV264917303181864962
p4414
aV259656157004722176
p4415
aV260609962693246976
p4416
aV261293315490729986
p4417
aV266033520735039488
p4418
aV254965947843108864
p4419
aV254429949329563648
p4420
aV248604728005644289
p4421
aV265948003049824258
p4422
aV243915483521355776
p4423
aV264990573491015680
p4424
aV226310697817083906
p4425
aV255298933625073664
p4426
aV266039099142598657
p4427
aV265962347565305856
p4428
aV249585872171851776
p4429
aV253728846287880192
p4430
aV262977836044918784
p4431
aV245916292375269377
p4432
aV218363129233551361
p4433
aV243855664366116864
p4434
aV256139149202055168
p4435
aV247188743553949696
p4436
aV266026252002004993
p4437
aV241513632112984064
p4438
aV265842495349469184
p4439
aV258948556923207680
p4440
aV253734634398031872
p4441
aV231816074138632192
p4442
aV231154925965565952
p4443
aV265649993573101568
p4444
aV260546418970877952
p4445
aV253609631581081600
p4446
aV246103026971054080
p4447
aV258717601759367169
p4448
aV265898929701388288
p4449
aV265664581362397184
p4450
aV259716957622915072
p4451
aV253664602116730880
p4452
aV265840695976267777
p4453
aV265828096287064064
p4454
aV265896585081286656
p4455
aV244548127196057601
p4456
aV243140632024059904
p4457
aV245810793046765568
p4458
aV238283250471157762
p4459
aV265590606401794049
p4460
aV261523406623752192
p4461
aV256574358552719361
p4462
aV248658943562354688
p4463
aV254051035918782464
p4464
aV253668737708875776
p4465
aV240643645395587072
p4466
aV253672315454377984
p4467
aV243176837222641665
p4468
aV258370644738203649
p4469
aV266030253342879744
p4470
aV258572642443984896
p4471
aV261267860242968577
p4472
aV235769591509430274
p4473
aV218074976388005888
p4474
aV261586056930029569
p4475
aV244866269352951808
p4476
aV266038637777539072
p4477
aV261664205193756674
p4478
aV243526776423342080
p4479
aV243857782506401792
p4480
aV240829306241159168
p4481
aV246747624399585280
p4482
aV231804376220565505
p4483
aV253664862159392768
p4484
aV238324040094343168
p4485
aV264267173499895808
p4486
aV238122638000680960
p4487
aV265654418542833665
p4488
aV245560011420483584
p4489
aV247826604896690176
p4490
aV260573128298745856
p4491
aV266005028798619648
p4492
aV254951091609927680
p4493
aV243544669303222272
p4494
aV265818902372708352
p4495
aV243541196423708672
p4496
aV253683535184015360
p4497
aV265155724198424576
p4498
aV266015124505100288
p4499
aV252214572512079872
p4500
aV265982698328293377
p4501
aV232238503428239360
p4502
aV254745142920105984
p4503
aV223910826107604992
p4504
aV265987836359081984
p4505
aV235279302550224896
p4506
aV265908454982565889
p4507
aV226157437911179265
p4508
aV243903030632800258
p4509
aV233703204746055680
p4510
aV238685895300087808
p4511
aV243715301995343873
p4512
aV265995168010874881
p4513
aV266002302521970688
p4514
aV256883055141195776
p4515
aV262545352975069184
p4516
aV264025661256114176
p4517
aV243913625440505857
p4518
aV254043519742795777
p4519
aV258392291570483200
p4520
aV266025358602690561
p4521
aV258964591747399681
p4522
aV246400755462963200
p4523
aV260177265697095681
p4524
aV258390341219123201
p4525
aV250225566421221377
p4526
aV266035055854510081
p4527
aV234660361675079680
p4528
aV236638059901374464
p4529
aV255860534149255169
p4530
aV260779890725511170
p4531
aV260470556615389184
p4532
aV266034862882963457
p4533
aV261113606337343488
p4534
aV243551925449146368
p4535
aV264480382525767680
p4536
aV245976967172730880
p4537
aV253676056744194049
p4538
aV218383551303917569
p4539
aV266032476361748481
p4540
aV255061385019523072
p4541
aV219815843230523392
p4542
aV264186982601740289
p4543
aV242698086797959168
p4544
aV253956039148445696
p4545
aV265950402221056000
p4546
aV234553956393697280
p4547
aV265957763186819072
p4548
aV265861667508854784
p4549
aV235576557077413888
p4550
aV253939173856256000
p4551
aV251094978565140480
p4552
aV254332335305158656
p4553
aV253671019389263874
p4554
aV265949945012555776
p4555
aV252038206193819650
p4556
aV265840146543431681
p4557
aV255534271824027648
p4558
aV252092056900624384
p4559
aV252248898670841856
p4560
aV235874310684831744
p4561
aV266030391775858688
p4562
aV245046448239046656
p4563
aV258391305888092160
p4564
aV239482473308897280
p4565
aV243902040781250560
p4566
aV247150051074404353
p4567
aV248191744234110976
p4568
aV253814678512365568
p4569
aV266011383169179648
p4570
aV266032572818128896
p4571
aV247022502314913792
p4572
aV253246530675421184
p4573
aV218468523704455169
p4574
aV265918009581907968
p4575
aV259689413641109505
p4576
aV241776447201611777
p4577
aV239451590627581952
p4578
aV252935019700551681
p4579
aV261519757570879488
p4580
aV237578137658081280
p4581
aV246266516742500352
p4582
aV253958073385877505
p4583
aV262960320614649857
p4584
aV254650519409262592
p4585
aV242048867263193089
p4586
aV256580201230778369
p4587
aV258377468870795265
p4588
aV258403486155276288
p4589
aV259086071395147776
p4590
aV265349266162208769
p4591
aV254431698354327552
p4592
aV254436215619731456
p4593
aV250735027585945600
p4594
aV253706549355216896
p4595
aV261586270822739970
p4596
aV253678623662428160
p4597
aV266038813942480897
p4598
aV243895128564039680
p4599
aV234723444003049473
p4600
aV256747956600967169
p4601
aV261334801326419968
p4602
aV265619287077707777
p4603
aV243909775069425666
p4604
aV243531578880442368
p4605
aV262642295915036672
p4606
aV235519925568016384
p4607
aV260049754669584384
p4608
aV252047123313471488
p4609
aV229330152079892480
p4610
aV250825083453571072
p4611
aV248237617341145088
p4612
aV264106808468185088
p4613
aV253626673042452480
p4614
aV250792590188900352
p4615
aV266027669651591169
p4616
aV243898299474640896
p4617
aV248561899950723073
p4618
aV239160870842806272
p4619
aV262764165607874561
p4620
aV222344526201765888
p4621
aV238047308313423872
p4622
aV219805265204228096
p4623
aV253677138899783681
p4624
aV253693874168549377
p4625
aV248919078469783552
p4626
aV254015313048387584
p4627
aV265970866196713472
p4628
aV244823416119652352
p4629
aV243886379237527554
p4630
aV260097984958701569
p4631
aV261440619430420480
p4632
aV253663922647875585
p4633
aV257517892436893697
p4634
aV266026402992775168
p4635
aV243908965564567552
p4636
aV256705430586265600
p4637
aV258767342048256000
p4638
aV258398771745009664
p4639
aV253667819135320065
p4640
aV253662072959811584
p4641
aV266032316965597185
p4642
aV266028730823090176
p4643
aV223479907487973376
p4644
aV265103979074166784
p4645
aV243929156948213762
p4646
aV246623695286697984
p4647
aV229680821081079810
p4648
aV248877638754652160
p4649
aV265918282236821504
p4650
aV262254482191179777
p4651
aV236131740312285184
p4652
aV266012788273602560
p4653
aV248395948110266368
p4654
aV243380177114124288
p4655
aV260555692577021953
p4656
aV266041833845563392
p4657
aV263854261014777856
p4658
aV266032312750338049
p4659
aV253661808722853888
p4660
aV240911711752814593
p4661
aV222515062382919680
p4662
aV235766424801529856
p4663
aV266036469301391361
p4664
aV258398218113650689
p4665
aV253672864895606784
p4666
aV243177265045848064
p4667
aV263755439018225664
p4668
aV265986359959883776
p4669
aV253073071047598080
p4670
aV254244636602810369
p4671
aV253692267741732867
p4672
aV258384943141486592
p4673
aV264099195781263360
p4674
aV240247065547005952
p4675
aV258269595591401473
p4676
aV253682696340000769
p4677
aV260570079064911874
p4678
aV247030756700999680
p4679
aV226087133016887296
p4680
aV228796028449587200
p4681
aV266026432361279488
p4682
aV255044934959247360
p4683
aV265843334189314049
p4684
aV249309756915843072
p4685
aV258381889688190977
p4686
aV254058841505943552
p4687
aV258378387444355072
p4688
aV265269859615649792
p4689
aV260572755030863873
p4690
aV266007268565336064
p4691
aV241087272752140288
p4692
aV223186742440759296
p4693
aV243908009263247360
p4694
aV261275544220491776
p4695
aV265714036400861184
p4696
aV265620604080766976
p4697
aV266041607332184064
p4698
aV245537668367265792
p4699
aV253666296623935489
p4700
aV265966017610665985
p4701
aV256572563428360192
p4702
aV224326682960601088
p4703
aV265362943795949569
p4704
aV229341266972917760
p4705
aV243531344003612672
p4706
aV250296311742599168
p4707
aV243532572955656192
p4708
aV243961729908895744
p4709
aV265671506145730560
p4710
aV230889183282081792
p4711
aV255823372620025856
p4712
aV231843488096985088
p4713
aV266035072610729984
p4714
aV265992475271917569
p4715
aV260142893388419073
p4716
aV228178090013122561
p4717
aV251202189140316160
p4718
aV265974364275617792
p4719
aV263718176834080768
p4720
aV254009310974210048
p4721
aV243038760743358464
p4722
aV252063321723924480
p4723
aV246963459080736768
p4724
aV261621016466452480
p4725
aV247345895702683648
p4726
aV243561954038390784
p4727
aV266009025978695681
p4728
aV248512457486778368
p4729
aV265781749232041984
p4730
aV238287172149587968
p4731
aV258193959711551488
p4732
aV248102275535491072
p4733
aV265898803872284673
p4734
aV266000385712472066
p4735
aV228295660548521984
p4736
aV265838942782377985
p4737
aV232594658570678272
p4738
aV234786685752311810
p4739
aV266025048220004352
p4740
aV261544709489586176
p4741
aV265601889100525568
p4742
aV265575733429161984
p4743
aV231032624255229953
p4744
aV253667655561670656
p4745
aV230341063234183168
p4746
aV263616137810567168
p4747
aV265866176385675265
p4748
aV251516497707560960
p4749
aV243734709010591744
p4750
aV253896538735128576
p4751
aV260575217074712577
p4752
aV245351902617948161
p4753
aV265967271711760385
p4754
aV265824707310411776
p4755
aV232575217980026881
p4756
aV258740733354323969
p4757
aV265634080362741760
p4758
aV230848414626242561
p4759
aV263488307994951680
p4760
aV258369856221614083
p4761
aV265819305025871872
p4762
aV266012834406739968
p4763
aV234405025051471872
p4764
aV258377124950470656
p4765
aV247858401923706883
p4766
aV253661380908040192
p4767
aV264179806109855744
p4768
aV243185221636337664
p4769
aV265940537192878080
p4770
aV262411001037737985
p4771
aV265954017685954560
p4772
aV263000615305756672
p4773
aV218050359984259072
p4774
aV259258469855678465
p4775
aV258711746523566082
p4776
aV244957822620684290
p4777
aV226586381030408192
p4778
aV260560293741080576
p4779
aV241979032114167809
p4780
aV249624140984762369
p4781
aV253127529869754368
p4782
aV232403180191879168
p4783
aV265569202876841984
p4784
aV260565087813791745
p4785
aV265866058936750080
p4786
aV219662499480469505
p4787
aV266031616529408001
p4788
aV263356078371270657
p4789
aV265304731025559552
p4790
aV258757837730230274
p4791
aV265972069995536385
p4792
aV219471205634293761
p4793
aV265956035146174464
p4794
aV237222754275962882
p4795
aV243906629341413376
p4796
aV251074220942049280
p4797
aV251702385049751552
p4798
aV243210957889875968
p4799
aV234384334537232384
p4800
aV265797385584771072
p4801
aV248226468864356353
p4802
aV244935332745859073
p4803
aV260538261062184960
p4804
aV261684530807701504
p4805
aV245906595136040960
p4806
aV251489083753390080
p4807
aV265212221464915969
p4808
aV263104613081817089
p4809
aV266012482085203969
p4810
aV259713178563395584
p4811
aV249671117202145281
p4812
aV266033688515596291
p4813
aV245389814956949504
p4814
aV247099371320139776
p4815
aV263113593061531648
p4816
aV265654347260628992
p4817
aV233792954471440384
p4818
aV231830066303209472
p4819
aV258377062040084480
p4820
aV256688573653323777
p4821
aV246277031887773696
p4822
aV259384999445426176
p4823
aV265726879334543360
p4824
aV248450461496135681
p4825
aV253670184726974464
p4826
aV259120334660313088
p4827
aV252967294895009792
p4828
aV220594951975731200
p4829
aV259897383977119744
p4830
aV253317833826635776
p4831
aV265474558428061696
p4832
aV263847122317742081
p4833
aV254533766763147266
p4834
aV265200104129056770
p4835
aV265991737066020865
p4836
aV218362630119768064
p4837
aV258372767093780480
p4838
aV266031633302433794
p4839
aV249357462929563648
p4840
aV260556267196661762
p4841
aV227563968418435072
p4842
aV265166608434073601
p4843
aV260771669898059776
p4844
aV248503821419020288
p4845
aV263595355013259264
p4846
aV265925156688515072
p4847
aV243909460526002176
p4848
aV253677306659344384
p4849
aV224673849701179392
p4850
aV266030366597451776
p4851
aV251021745987932160
p4852
aV266017599136071681
p4853
aV265873092776185856
p4854
aV251324604096839682
p4855
aV243560540536979456
p4856
aV220509077778862082
p4857
aV262720414810255360
p4858
aV265985810514448387
p4859
aV266026717544599553
p4860
aV234764543996350464
p4861
aV266002097001099265
p4862
aV241396963361296384
p4863
aV246383143580475392
p4864
aV253673624073031680
p4865
aV218075387429781504
p4866
aV265838640758943744
p4867
aV253874115998527488
p4868
aV234054788067778560
p4869
aV248513690633134081
p4870
aV260874795242106880
p4871
aV247759613464805377
p4872
aV266032535052636162
p4873
aV221323682935607297
p4874
aV253717257396555776
p4875
aV257191042896523264
p4876
aV246069019550035969
p4877
aV258372049842606080
p4878
aV260575011574796288
p4879
aV258370812531322880
p4880
aV257539530834456578
p4881
aV264896969179287552
p4882
aV266031096418951168
p4883
aV245361847333691393
p4884
aV261358725657399296
p4885
aV258388223083040768
p4886
aV243939663709106176
p4887
aV248482816365559808
p4888
aV259798478094479360
p4889
aV256759201555177472
p4890
aV242766944699305985
p4891
aV260913001165619200
p4892
aV265885822513995776
p4893
aV265795686929403904
p4894
aV245997854789865472
p4895
aV265138468814979074
p4896
aV260793782272917504
p4897
aV246804234895495169
p4898
aV265110488642355202
p4899
aV243893304045998081
p4900
aV266015262929735680
p4901
aV237036569113022464
p4902
aV247345128178589696
p4903
aV265479767753625600
p4904
aV266032262418677760
p4905
aV240658107347398658
p4906
aV265998930301554688
p4907
aV229888661427220480
p4908
aV227570406662483969
p4909
aV253686144053686272
p4910
aV258964675625111552
p4911
aV258395412111712256
p4912
aV253667424862347266
p4913
aV241004154192003072
p4914
aV253666778956328960
p4915
aV241393129759059968
p4916
aV265791886877413376
p4917
aV245152962589122560
p4918
aV266031624909623296
p4919
aV251376814797246464
p4920
aV262016497369628672
p4921
aV265971323384250368
p4922
aV245244083847704576
p4923
aV260168579318689794
p4924
aV243178623996162048
p4925
aV265658730304135168
p4926
aV260493239419805696
p4927
aV240549336461750273
p4928
aV243905392030138368
p4929
aV260939844690264064
p4930
aV266034816762408960
p4931
aV258401653227675648
p4932
aV237977506697842688
p4933
aV238343078052786176
p4934
aV260543327781416960
p4935
aV243194038063349760
p4936
aV258964977640169474
p4937
aV260550017700487169
p4938
aV223515894649864192
p4939
aV243496137007456256
p4940
aV253887139295686657
p4941
aV258380660752932864
p4942
aV260567868666679298
p4943
aV264492667650600961
p4944
aV260573413523980288
p4945
aV265968915857940480
p4946
aV253684235649564673
p4947
aV265904281620725760
p4948
aV258378085433479168
p4949
aV235014121848975363
p4950
aV265611758310416384
p4951
aV241349467083788288
p4952
aV265852066742812672
p4953
aV265800296452730882
p4954
aV253681765200314368
p4955
aV253295473983643649
p4956
aV237401582638084096
p4957
aV257600373425061888
p4958
aV241081040016404480
p4959
aV258384737603833856
p4960
aV253674676826562561
p4961
aV258391301693771776
p4962
aV265869783491280897
p4963
aV265868369998249984
p4964
aV265958602085367810
p4965
aV243903219384848384
p4966
aV253134697947873280
p4967
aV263402828092043264
p4968
aV258418619191529472
p4969
aV262439664881893376
p4970
aV231826031412125696
p4971
aV251088619996069889
p4972
aV265745573347463169
p4973
aV258393184944672768
p4974
aV219521596036100096
p4975
aV244798699086151680
p4976
aV244799932219944961
p4977
aV265998032699531264
p4978
aV253852917986111488
p4979
aV265494695256395777
p4980
aV244191762355220484
p4981
aV258393931526574080
p4982
aV265427888394866688
p4983
aV228094413673467904
p4984
aV228358952595881986
p4985
aV223419962520375298
p4986
aV235475210114043904
p4987
aV253664585331126273
p4988
aV261962965476065280
p4989
aV241580967498756096
p4990
aV243165508441104384
p4991
aV265669765505372160
p4992
aV240652419887923200
p4993
aV254552284623687680
p4994
aV265671761998270465
p4995
aV253692058039099392
p4996
aV259506235777355776
p4997
aV266040625856663553
p4998
aV248254784614850562
p4999
aV258381440893480960
p5000
aV264190665171275777
p5001
aV257582409216847872
p5002
aV248228758983688193
p5003
aV258380929175805954
p5004
aV266037475959504897
p5005
aV246708676088430592
p5006
aV230620580028760064
p5007
aV251689097528217600
p5008
aV255473014043447296
p5009
aV264338111755071488
p5010
aV266009302815342592
p5011
aV243161578357280768
p5012
aV263904299074076673
p5013
aV243156104811524097
p5014
aV229390365520703488
p5015
aV266036335104647168
p5016
aV264415039484747776
p5017
aV247009235718791168
p5018
aV246011398218448896
p5019
aV266041737384951809
p5020
aV244917204959768576
p5021
aV250661056840626177
p5022
aV219636696109690881
p5023
aV253686223762255873
p5024
aV260576466981498881
p5025
aV265804578853908480
p5026
aV241362620391751680
p5027
aV260234228556509184
p5028
aV261643678269980672
p5029
aV266029414498856961
p5030
aV218394250994384896
p5031
aV243918306287943680
p5032
aV258380643971518464
p5033
aV266021294309515264
p5034
aV243918813794549760
p5035
aV265237454397767680
p5036
aV245724696568532992
p5037
aV243939198132961281
p5038
aV253691013649010688
p5039
aV253666154005024768
p5040
aV265646491341815808
p5041
aV261673994682503168
p5042
aV266037555630321664
p5043
aV248519717822820356
p5044
aV247826579722493952
p5045
aV246097389847465984
p5046
aV265527041724665857
p5047
aV243827814183346176
p5048
aV262387995263520768
p5049
aV236061418603036672
p5050
aV261460152325132290
p5051
aV266016894501396481
p5052
aV265681551491215361
p5053
aV261636132738068480
p5054
aV256827686150885376
p5055
aV253683983991324673
p5056
aV250823611278032896
p5057
aV265734072574296064
p5058
aV249976391209189376
p5059
aV248226682794815488
p5060
aV262313567343235074
p5061
aV265961659703623680
p5062
aV245668497080844288
p5063
aV265869036880023554
p5064
aV264224165081518080
p5065
aV265984229282836481
p5066
aV266021436953591808
p5067
aV266000553505607680
p5068
aV258555156394807296
p5069
aV265960145576665090
p5070
aV243293241749938177
p5071
aV266028714041675776
p5072
aV262960324838309889
p5073
aV258529789231644672
p5074
aV265574915535679489
p5075
aV260568321634734082
p5076
aV266013509685477377
p5077
aV262400305533161472
p5078
aV253812572959158272
p5079
aV255761611522981888
p5080
aV266033873031413760
p5081
aV252389823103516672
p5082
aV266037488538226688
p5083
aV240258750886313984
p5084
aV260844713706418178
p5085
aV265973668016959488
p5086
aV234313337557639170
p5087
aV218345303445745664
p5088
aV261562380079755264
p5089
aV243157707031445504
p5090
aV258390169231712256
p5091
aV265659380429639682
p5092
aV258394900435980289
p5093
aV260558917996802048
p5094
aV250635261875220480
p5095
aV242692537721188352
p5096
aV265857775177961472
p5097
aV233562766844239872
p5098
aV266040357437968385
p5099
aV218479034651246592
p5100
aV231153818686074880
p5101
aV265957582844346368
p5102
aV266028831511556096
p5103
aV259325603902271488
p5104
aV245989235520327680
p5105
aV261268850086133761
p5106
aV232983894201344000
p5107
aV219806200496275456
p5108
aV265904055153463296
p5109
aV265898963239071744
p5110
aV265903832838574080
p5111
aV265946933502287872
p5112
aV260561392657129472
p5113
aV253664061047316481
p5114
aV240907983024951299
p5115
aV265844827374096384
p5116
aV258398314561675266
p5117
aV251738770641149953
p5118
aV260575623918010368
p5119
aV258399287648608257
p5120
aV261485443969871872
p5121
aV266036540633935872
p5122
aV235556013368029184
p5123
aV266001820177010689
p5124
aV260561229075062784
p5125
aV218486718620381184
p5126
aV263656369582903296
p5127
aV233730165723766785
p5128
aV261668244312694784
p5129
aV265489720837042176
p5130
aV260263802585628672
p5131
aV258444091203919872
p5132
aV243815000601399297
p5133
aV265576391905529856
p5134
aV243207023653699584
p5135
aV266036435767918592
p5136
aV266033575252598785
p5137
aV244087743582449665
p5138
aV253662555287977985
p5139
aV248913424573149184
p5140
aV258380576871030784
p5141
aV230080592757280768
p5142
aV234456417858367488
p5143
aV266030236574035968
p5144
aV266024024809799680
p5145
aV250164728054300674
p5146
aV224932642443902978
p5147
aV265674106605821952
p5148
aV258411170136997888
p5149
aV265973974175989760
p5150
aV241037821874434050
p5151
aV250036088759009280
p5152
aV240985523102023681
p5153
aV261050482032799744
p5154
aV241989375255269376
p5155
aV266002688376979456
p5156
aV262252145968029696
p5157
aV265650421383716864
p5158
aV265976473981161472
p5159
aV264021966074286080
p5160
aV232283365724807168
p5161
aV258474327954055168
p5162
aV260573908447662080
p5163
aV266039204016963585
p5164
aV258574114653097987
p5165
aV241360271589924864
p5166
aV234409768805076992
p5167
aV235421086794280960
p5168
aV265461375734775808
p5169
aV237661277160353794
p5170
aV218363636761100288
p5171
aV265789185754025984
p5172
aV265579315347996673
p5173
aV258382061637861376
p5174
aV224498133504245760
p5175
aV266039208186114048
p5176
aV265930047234392064
p5177
aV241753357587476480
p5178
aV266030236578217984
p5179
aV265199412077289472
p5180
aV265984929723215872
p5181
aV265974515270553600
p5182
aV243512826138882050
p5183
aV258338583503593472
p5184
aV239438894486147072
p5185
aV265860971237629952
p5186
aV266032295973122048
p5187
aV243199398392258560
p5188
aV255815193748180995
p5189
aV261330766401777664
p5190
aV238675099140632577
p5191
aV253666627973951488
p5192
aV231750596829528065
p5193
aV260569756099309569
p5194
aV223911287460069378
p5195
aV265465200923254784
p5196
aV231145555907207168
p5197
aV253824073749114880
p5198
aV246857603253166080
p5199
aV260565817631064065
p5200
aV265993616097431552
p5201
aV265612563616780288
p5202
aV253484632933277696
p5203
aV231033266013093888
p5204
aV258381315055972353
p5205
aV261564854723289088
p5206
aV243576877351047168
p5207
aV244631505752690688
p5208
aV236183854522703872
p5209
aV252951348155392000
p5210
aV253668951601577984
p5211
aV263986750723063808
p5212
aV254304363504345089
p5213
aV266035303301656577
p5214
aV253275970507796480
p5215
aV264932092293566464
p5216
aV250699803812560896
p5217
aV230861446345535491
p5218
aV259192543797985280
p5219
aV224686919127277568
p5220
aV248530874679844864
p5221
aV243896479121563650
p5222
aV253672109929271297
p5223
aV240940820222578688
p5224
aV258383596748959745
p5225
aV253182185836793857
p5226
aV254321362993311744
p5227
aV246182177690251264
p5228
aV218353146794225664
p5229
aV228767607828914176
p5230
aV258988776129429504
p5231
aV218386399232131072
p5232
aV258398356525707265
p5233
aV265854348435812352
p5234
aV254077652967772160
p5235
aV263322163233300480
p5236
aV249288726688169984
p5237
aV265959671607726080
p5238
aV245198747611590656
p5239
aV266033587848089600
p5240
aV219264933962055680
p5241
aV244854261027045376
p5242
aV265905737061003264
p5243
aV258386507595931649
p5244
aV261839929754124288
p5245
aV265454794850832384
p5246
aV260195242513403905
p5247
aV243484334240169984
p5248
aV253710928212803584
p5249
aV253659275338084352
p5250
aV265210770231525376
p5251
aV265959306699087873
p5252
aV266003447566970880
p5253
aV252610468659744768
p5254
aV265820693348900864
p5255
aV258573049291493376
p5256
aV244264957137526784
p5257
aV258375120060563458
p5258
aV250646301253963776
p5259
aV243904435724627968
p5260
aV247447129432395776
p5261
aV253683904320520193
p5262
aV226028895089065986
p5263
aV251164620767756288
p5264
aV237941171429724160
p5265
aV260571278631657472
p5266
aV229098395816558592
p5267
aV243927542170529792
p5268
aV230514644488445952
p5269
aV256035075920113665
p5270
aV265788124590919680
p5271
aV253686441849286656
p5272
aV253826091213545473
p5273
aV235720081961783296
p5274
aV266001753059753984
p5275
aV236500121821515776
p5276
aV265833775378886656
p5277
aV253661368325111808
p5278
aV233212257260158977
p5279
aV253675897356435456
p5280
aV265553805607833600
p5281
aV243432421335396353
p5282
aV252478658462232576
p5283
aV243929240838475776
p5284
aV263366547375001600
p5285
aV251342044004507648
p5286
aV241359063621980162
p5287
aV222327816090419200
p5288
aV262842699743383553
p5289
aV253668494439239682
p5290
aV243908273504411649
p5291
aV255432849359007744
p5292
aV236131748684115970
p5293
aV258397488308969474
p5294
aV262939932115472385
p5295
aV256580889100828672
p5296
aV218415977463947265
p5297
aV257004035645792256
p5298
aV265828201169817601
p5299
aV238047006294151168
p5300
aV234544225595822081
p5301
aV243929861624836096
p5302
aV219531280658866178
p5303
aV241313853219172352
p5304
aV262992801329991680
p5305
aV249171026146107392
p5306
aV266039078171049986
p5307
aV259077103968976896
p5308
aV260537145381511169
p5309
aV265976364925075456
p5310
aV260565171725008896
p5311
aV258400936001679360
p5312
aV264993379467800578
p5313
aV262616215728558080
p5314
aV256597829890478080
p5315
aV260458250510680066
p5316
aV260096542134910976
p5317
aV253572201612206081
p5318
aV243733870153961473
p5319
aV253662924390928387
p5320
aV253998611317264384
p5321
aV266028001022582784
p5322
aV260689759305879552
p5323
aV253665491288195072
p5324
aV265647883813007360
p5325
aV260555797455593472
p5326
aV261180786483556352
p5327
aV243181534872469506
p5328
aV243908290319360000
p5329
aV261321446670884864
p5330
aV265094596420317184
p5331
aV258065303609675776
p5332
aV253719006450683904
p5333
aV261817435689201665
p5334
aV263779233334173697
p5335
aV259831139139715072
p5336
aV250402318590283778
p5337
aV263613944181182464
p5338
aV243264728892317696
p5339
aV266004148003172352
p5340
aV259324861485289473
p5341
aV266021101392523264
p5342
aV258398461387501568
p5343
aV255338964083429377
p5344
aV241378072224481280
p5345
aV265792511841284096
p5346
aV244962121778073600
p5347
aV243153030374121472
p5348
aV250466202042916866
p5349
aV266027405448200194
p5350
aV260587057603305472
p5351
aV265855162151755776
p5352
aV245232079762235392
p5353
aV258241917387685889
p5354
aV229756817662685184
p5355
aV253932857234444288
p5356
aV263059444622036994
p5357
aV248093450715684864
p5358
aV266032346304761856
p5359
aV235435188027527169
p5360
aV260561312969531393
p5361
aV260979896107540481
p5362
aV261649592247009281
p5363
aV262382056137428992
p5364
aV238421079528448000
p5365
aV243584141910761472
p5366
aV240889515479273472
p5367
aV265938960126201856
p5368
aV265948971942436864
p5369
aV260446997201444865
p5370
aV253689319137619968
p5371
aV239408053781422080
p5372
aV265683573162532865
p5373
aV248910022980022274
p5374
aV266002398999347200
p5375
aV241277425714085888
p5376
aV245528998711545856
p5377
aV249634131842060288
p5378
aV258377275962183680
p5379
aV266020304457957376
p5380
aV265969826021920769
p5381
aV253693811245584384
p5382
aV243471252210216960
p5383
aV266036410610511872
p5384
aV244436722258161664
p5385
aV243900841218691073
p5386
aV260586025796120576
p5387
aV258385924587655168
p5388
aV253626526229209089
p5389
aV253672273498734593
p5390
aV265606964204167168
p5391
aV217348233532407810
p5392
aV240643540550549504
p5393
aV233199867298729985
p5394
aV263023914647699457
p5395
aV258376277692653568
p5396
aV265989174342057984
p5397
aV259467123884171264
p5398
aV255438507491872768
p5399
aV258410373215051776
p5400
aV261576087077785600
p5401
aV248145002893557760
p5402
aV248886123852607488
p5403
aV236468832313692160
p5404
aV264178224894967809
p5405
aV221429131915698176
p5406
aV243036084773203969
p5407
aV230305168367955969
p5408
aV265941199892910080
p5409
aV241286485402345472
p5410
aV243468093886709761
p5411
aV259526108419080192
p5412
aV230649352970960897
p5413
aV235126868951572480
p5414
aV243420832486006784
p5415
aV253681404511150081
p5416
aV260863927808835584
p5417
aV243182994456719360
p5418
aV261474756862279682
p5419
aV265857934569918465
p5420
aV266032732197511169
p5421
aV238002869666717697
p5422
aV253769472295448576
p5423
aV237524547031666689
p5424
aV248850384196608002
p5425
aV264951780381716480
p5426
aV260872035390062592
p5427
aV266008602358185984
p5428
aV255057152996155393
p5429
aV265969045885562880
p5430
aV253687461073543168
p5431
aV265552572474085377
p5432
aV265684227473936384
p5433
aV258380040016896001
p5434
aV258419231555735552
p5435
aV258377355653939201
p5436
aV247336500491087872
p5437
aV266020459668185089
p5438
aV243917295456505856
p5439
aV265235470483599360
p5440
aV264297708007849984
p5441
aV247607699976638464
p5442
aV246685485790023680
p5443
aV266030358200467456
p5444
aV253668402172936192
p5445
aV265596851753992194
p5446
aV243910727201603584
p5447
aV241432560402591744
p5448
aV255001951769604096
p5449
aV224881010549067779
p5450
aV258386092372406272
p5451
aV260050518053879808
p5452
aV237242404598607872
p5453
aV262143177941741568
p5454
aV248994575966937088
p5455
aV247809966096920576
p5456
aV260502437507526656
p5457
aV265990545896271875
p5458
aV259390368154517504
p5459
aV242729078506008576
p5460
aV254360739152814080
p5461
aV244479537746952192
p5462
aV265853215973703681
p5463
aV241058411716952064
p5464
aV253688841012117504
p5465
aV257846700708859904
p5466
aV259731591536992256
p5467
aV253686131487539201
p5468
aV261939468997627904
p5469
aV258377187873419264
p5470
aV265994144596516864
p5471
aV248997050589515776
p5472
aV247418109059817472
p5473
aV228872729657491457
p5474
aV251105007146000384
p5475
aV265995813929512961
p5476
aV264196625289850880
p5477
aV224696339542446081
p5478
aV258601037873680385
p5479
aV233402653508513792
p5480
aV227040284398215168
p5481
aV265626161541943297
p5482
aV258985349374676992
p5483
aV265246686056677376
p5484
aV253667252916867072
p5485
aV257068615344459776
p5486
aV243916049748217857
p5487
aV265753097962418176
p5488
aV243542979015499778
p5489
aV265863206805843969
p5490
aV253688216027271168
p5491
aV265792205652910080
p5492
aV233667024654581761
p5493
aV239751202340995072
p5494
aV258711096427417600
p5495
aV265972854330359808
p5496
aV265812539605131265
p5497
aV257321854837084161
p5498
aV265860480499867649
p5499
aV219479522939125762
p5500
aV265999668499062784
p5501
aV265190641775046656
p5502
aV253297185280634880
p5503
aV265387400778358785
p5504
aV261516976755707904
p5505
aV265841543225671681
p5506
aV259117218267295744
p5507
aV219513219985850371
p5508
aV251795041452965888
p5509
aV241942529078095872
p5510
aV256857553764487168
p5511
aV230080177516978177
p5512
aV265414126891835392
p5513
aV240170670502342656
p5514
aV258888368669196291
p5515
aV258393621156466688
p5516
aV258623452238462976
p5517
aV260560608313872384
p5518
aV248700119040540672
p5519
aV234291439104831489
p5520
aV262949381878185984
p5521
aV266037677260939265
p5522
aV247385179579109378
p5523
aV263285995762495488
p5524
aV234028535931604993
p5525
aV265954541965570049
p5526
aV246699230520029184
p5527
aV265267980571664385
p5528
aV265872203600523264
p5529
aV241006700172279809
p5530
aV265400013042110464
p5531
aV265688027504971776
p5532
aV258381398942023680
p5533
aV242248667111763968
p5534
aV253683757486317568
p5535
aV258989677900607488
p5536
aV258403599405678594
p5537
aV260557483549011968
p5538
aV265762447066030080
p5539
aV265964595708039168
p5540
aV262933783270010880
p5541
aV265992559170580481
p5542
aV266034019865595905
p5543
aV265981272281739266
p5544
aV247076805947826176
p5545
aV218348977668636672
p5546
aV256597825712959488
p5547
aV261234553287491586
p5548
aV252917495915229186
p5549
aV222111381623816193
p5550
aV244491789296340993
p5551
aV245707575402823681
p5552
aV265897402987315200
p5553
aV263822359151132672
p5554
aV266024356151439360
p5555
aV256594856116383745
p5556
aV258203120042123265
p5557
aV258339380421345282
p5558
aV243125377302687744
p5559
aV265982668976566273
p5560
aV237967314543316993
p5561
aV231173913609138176
p5562
aV243380437135806464
p5563
aV253683585515671553
p5564
aV231970663584395264
p5565
aV265871155041296384
p5566
aV265873419944484865
p5567
aV227419990532427776
p5568
aV258386067193999361
p5569
aV256087777349877761
p5570
aV265143183225257984
p5571
aV265939362783571969
p5572
aV266037664707407872
p5573
aV227465939132768256
p5574
aV243914845982957568
p5575
aV256758379463192577
p5576
aV258387384213856256
p5577
aV245752513167503361
p5578
aV243717638201700352
p5579
aV262917526164500481
p5580
aV243870155682234370
p5581
aV253666523112169473
p5582
aV227418853871865857
p5583
aV265862275661971456
p5584
aV255882969498148864
p5585
aV265503893373480961
p5586
aV260407126156001280
p5587
aV231823451906789376
p5588
aV253693626700398592
p5589
aV266016500224258050
p5590
aV243183497781604352
p5591
aV223451600151261185
p5592
aV265608503522111488
p5593
aV265077840171655168
p5594
aV265543613453316096
p5595
aV255350267728515072
p5596
aV265160417624588288
p5597
aV229038849299464193
p5598
aV223088465707933696
p5599
aV246651394487099393
p5600
aV266012205252759552
p5601
aV265675566223601665
p5602
aV219427979141447681
p5603
aV262781702018060288
p5604
aV249590708212736000
p5605
aV253695329575243776
p5606
aV258387627487678464
p5607
aV256142634647711744
p5608
aV261231759885205504
p5609
aV263298171835400192
p5610
aV257101708394631169
p5611
aV260563758248783872
p5612
aV260568334234447873
p5613
aV256606277239709696
p5614
aV230391445192855553
p5615
aV265178616701276160
p5616
aV265968240587591680
p5617
aV257175486218784768
p5618
aV258385169621323776
p5619
aV244697947701395457
p5620
aV260710940562055168
p5621
aV253308748959985665
p5622
aV262901466170261506
p5623
aV229655210644086784
p5624
aV231223251198676994
p5625
aV253669844992552960
p5626
aV218393235968622593
p5627
aV247932347494838273
p5628
aV243908613247213568
p5629
aV258348763083575297
p5630
aV229688744087805952
p5631
aV253686844527624192
p5632
aV264897971651502081
p5633
aV243915030557491200
p5634
aV265840121381781505
p5635
aV266032686051770368
p5636
aV258394912989536258
p5637
aV266027506086326273
p5638
aV243559282245787648
p5639
aV243963843859062784
p5640
aV261600506286338048
p5641
aV253679957472067585
p5642
aV257910944838082560
p5643
aV243173712482938880
p5644
aV243194734326190080
p5645
aV263730210279661568
p5646
aV260459718517084160
p5647
aV237514220672008193
p5648
aV255692493562183681
p5649
aV224689079206416384
p5650
aV242239448048353280
p5651
aV260603641856135170
p5652
aV258592284352856066
p5653
aV261194631893635072
p5654
aV237715991839248384
p5655
aV241667588235616256
p5656
aV234362348012441600
p5657
aV243126153274077185
p5658
aV242103707762823168
p5659
aV266034753847828480
p5660
aV244835000812462081
p5661
aV265796991353769984
p5662
aV237744290829324288
p5663
aV239937878245912576
p5664
aV228670937501949953
p5665
aV243380655260573696
p5666
aV265620532773400576
p5667
aV251655685694185472
p5668
aV242108040495656960
p5669
aV265243661997056000
p5670
aV252591829193728000
p5671
aV253301845148196864
p5672
aV263367147164680193
p5673
aV265825613271662592
p5674
aV248603041882849281
p5675
aV253437308571877376
p5676
aV265986255093911552
p5677
aV265994299802533888
p5678
aV262539552240050176
p5679
aV244926373691527168
p5680
aV265985881830219777
p5681
aV254003279586029570
p5682
aV253893720162856960
p5683
aV265918131208343552
p5684
aV256577516892987392
p5685
aV243897720639733760
p5686
aV253676094522277892
p5687
aV231480156517183490
p5688
aV224370005922426881
p5689
aV252578742940082177
p5690
aV228229977760493568
p5691
aV217143899616067585
p5692
aV258322204754866177
p5693
aV250243329298677760
p5694
aV265988675236663298
p5695
aV259654387012599808
p5696
aV252968259555577856
p5697
aV241396757844611072
p5698
aV265637507117498369
p5699
aV253674186101374976
p5700
aV261423812862693376
p5701
aV248188141318578176
p5702
aV253666481143951360
p5703
aV260815626182995968
p5704
aV254615039808516097
p5705
aV258385991696519170
p5706
aV256582956909461504
p5707
aV263718348800540672
p5708
aV256895717761765376
p5709
aV246037339963527168
p5710
aV256027551338749952
p5711
aV245629351641612289
p5712
aV260840968163557377
p5713
aV260598562583359488
p5714
aV265618691469766657
p5715
aV254656575971684352
p5716
aV243555150860529664
p5717
aV264149066072604672
p5718
aV257941936562913280
p5719
aV265594339340734465
p5720
aV258380887249522689
p5721
aV246913521709899777
p5722
aV243550558118608896
p5723
aV259777997341601792
p5724
aV241003550220615680
p5725
aV248129202975555584
p5726
aV253671501750996992
p5727
aV247872813569024001
p5728
aV250256985973473281
p5729
aV255320714645749760
p5730
aV264322534110015488
p5731
aV253696306864848896
p5732
aV265677587886505984
p5733
aV235079846609420288
p5734
aV265864305742856192
p5735
aV224278247142211585
p5736
aV243543486526279680
p5737
aV254980770517630977
p5738
aV243596141789339648
p5739
aV262671467316125697
p5740
aV223114017386926080
p5741
aV258407965680353282
p5742
aV242864634221178880
p5743
aV255831534756589568
p5744
aV258041240891830272
p5745
aV266036288971476992
p5746
aV246409047585210371
p5747
aV252081164259561473
p5748
aV243560045638463488
p5749
aV256597829890478080
p5750
aV266015669752041474
p5751
aV257656723899310080
p5752
aV243914665636294656
p5753
aV262301626142978048
p5754
aV228971635556900864
p5755
aV263492133225381889
p5756
aV264363244012052482
p5757
aV232607107273355264
p5758
aV231890988577210369
p5759
aV245943580517093376
p5760
aV265998598934765569
p5761
aV245174219334369281
p5762
aV253676174201479170
p5763
aV263275245740363777
p5764
aV253716347253583872
p5765
aV260554945986707456
p5766
aV252265445204316161
p5767
aV253817715188453378
p5768
aV266034032419155968
p5769
aV258418917020688385
p5770
aV245979462775218176
p5771
aV253704322183999488
p5772
aV258576866103947264
p5773
aV263428803399929856
p5774
aV266030354014535680
p5775
aV243524436005908482
p5776
aV232276348650004480
p5777
aV259368528396812288
p5778
aV265993326719795200
p5779
aV248271884800643072
p5780
aV265684151976488961
p5781
aV253686550917951488
p5782
aV265994069090635777
p5783
aV266017536225714176
p5784
aV234600710279405568
p5785
aV243904205029515264
p5786
aV258385781985513472
p5787
aV249314395845447681
p5788
aV218357672473395201
p5789
aV262022826582757377
p5790
aV265878838981050368
p5791
aV252353487860543488
p5792
aV243519411212922880
p5793
aV243901004813316096
p5794
aV265209507771207681
p5795
aV256582587777179648
p5796
aV249176034132512769
p5797
aV254040827003801600
p5798
aV245848130728370178
p5799
aV253677658985082881
p5800
aV253329720484179969
p5801
aV260549891888140288
p5802
aV265940591718846464
p5803
aV241974162510454784
p5804
aV262609131557507072
p5805
aV262553804506009600
p5806
aV236125453063184384
p5807
aV220521144778895361
p5808
aV262203219395104768
p5809
aV260560830632951809
p5810
aV253800300429848576
p5811
aV260550537794166784
p5812
aV260603717357805568
p5813
aV235276714647887872
p5814
aV249501101089513473
p5815
aV263820064887816192
p5816
aV260555730338336769
p5817
aV244204752076943360
p5818
aV226182226281385984
p5819
aV266005028802789377
p5820
aV240998382854877184
p5821
aV263848523236245504
p5822
aV265777852744617985
p5823
aV258393696666521601
p5824
aV256604230423572480
p5825
aV265956479742386176
p5826
aV258381461848215553
p5827
aV240626524242472960
p5828
aV249302836347797504
p5829
aV250867970245537792
p5830
aV253648194016268289
p5831
aV241710642757775360
p5832
aV234165756760305664
p5833
aV263357944849133568
p5834
aV259097698014228480
p5835
aV241398821421191168
p5836
aV253672399315296257
p5837
aV265796991353769984
p5838
aV253672386732384257
p5839
aV258388780929662978
p5840
aV260561208086777856
p5841
aV260557949116743680
p5842
aV245591233815257089
p5843
aV266033520714055680
p5844
aV243181811696553984
p5845
aV266037404664725505
p5846
aV253667936592617473
p5847
aV265516241417023488
p5848
aV253699217707642880
p5849
aV259801359602286592
p5850
aV266041229836419073
p5851
aV250055604834562048
p5852
aV256961748672847874
p5853
aV243130632782356480
p5854
aV260556284003246081
p5855
aV247207328489824257
p5856
aV266032627348295682
p5857
aV263121633559060481
p5858
aV253684856402345986
p5859
aV260078091408375808
p5860
aV258373182304694273
p5861
aV265925156705296384
p5862
aV244304652018016259
p5863
aV258304949379796993
p5864
aV266026801451634689
p5865
aV265963794621145089
p5866
aV263453528830406657
p5867
aV259179906351628289
p5868
aV223904710808178688
p5869
aV266033675915898880
p5870
aV251140058927726592
p5871
aV261480360473415680
p5872
aV252599605424951296
p5873
aV265193028329803776
p5874
aV260572021002493952
p5875
aV253683963040788480
p5876
aV248889139532009473
p5877
aV260563078763143168
p5878
aV243379417945104384
p5879
aV265850376438312961
p5880
aV266039300473360384
p5881
aV244254228095332353
p5882
aV265992999555706881
p5883
aV240955298939015168
p5884
aV243375160705548288
p5885
aV253668397961842688
p5886
aV260569542172999681
p5887
aV260873096540590081
p5888
aV264219937244061696
p5889
aV224908638425333760
p5890
aV248462289429221377
p5891
aV235077984355237889
p5892
aV247808636510928896
p5893
aV261321576711086080
p5894
aV260555143135768577
p5895
aV243403652612640769
p5896
aV263471534998421504
p5897
aV266032262439661569
p5898
aV221287528039321600
p5899
aV253689491120861185
p5900
aV218384239199129601
p5901
aV243902946738307073
p5902
aV259954917253472256
p5903
aV243897867452956672
p5904
aV224959032996278272
p5905
aV266038545515421696
p5906
aV234695803548098561
p5907
aV265874598552289281
p5908
aV236522901099118593
p5909
aV253685112271679489
p5910
aV266037589193129984
p5911
aV266039300477550594
p5912
aV254305886032506880
p5913
aV243935528129552385
p5914
aV260371227087106048
p5915
aV243183741063811073
p5916
aV263036103311904769
p5917
aV249249547715497984
p5918
aV263384134066528257
p5919
aV246555865023381504
p5920
aV225292207521935360
p5921
aV260749054194110464
p5922
aV265506489647644672
p5923
aV266014302413131776
p5924
aV241841236632281088
p5925
aV243531331437490177
p5926
aV253462776406765568
p5927
aV260741684814553089
p5928
aV225989472813211648
p5929
aV253686429266374656
p5930
aV266003669881847808
p5931
aV264050265043378176
p5932
aV258398721421758464
p5933
aV220745040950075394
p5934
aV243796826661191680
p5935
aV253674622313193472
p5936
aV220742042005942272
p5937
aV261146284138831872
p5938
aV260574738911473666
p5939
aV257002437641138176
p5940
aV250078715470565377
p5941
aV241705215353565184
p5942
aV260576206943055872
p5943
aV257468361884200960
p5944
aV253128951747186690
p5945
aV265893292552634369
p5946
aV262660239168516099
p5947
aV265677805994516480
p5948
aV235544491606540289
p5949
aV243910576189894656
p5950
aV260592493421277184
p5951
aV253673850552864770
p5952
aV253682868302249986
p5953
aV258410574524854274
p5954
aV253694796902850562
p5955
aV261655531373072386
p5956
aV255011942563975168
p5957
aV253680083276017664
p5958
aV258421156779016192
p5959
aV265962456650743810
p5960
aV240229235594252289
p5961
aV245720846201667584
p5962
aV258451108282904576
p5963
aV234214364574523393
p5964
aV244030675899019264
p5965
aV261073521353039874
p5966
aV241586499773153280
p5967
aV237908535546114048
p5968
aV218956820415389696
p5969
aV258401917489795073
p5970
aV241578572521820160
p5971
aV266037463351443460
p5972
aV243180679238660096
p5973
aV260171909596057600
p5974
aV266033709487112192
p5975
aV235045432340930560
p5976
aV243550801396649984
p5977
aV255588042839060480
p5978
aV243442995175768065
p5979
aV260564253185028096
p5980
aV265982027248070658
p5981
aV265886342599278593
p5982
aV254587181203587073
p5983
aV247388912488677376
p5984
aV264371297071538176
p5985
aV253801659405303809
p5986
aV253698353676812288
p5987
aV255491179557302272
p5988
aV219749078270095361
p5989
aV241285596209901568
p5990
aV265964650234011649
p5991
aV254648908809109505
p5992
aV234358208226021376
p5993
aV262746457247973376
p5994
aV249537054659211264
p5995
aV260848383709814784
p5996
aV265945285161795584
p5997
aV232988067521241089
p5998
aV248849130087141376
p5999
aV250937931211087873
p6000
aV244809021259911169
p6001
aV235922650050994176
p6002
aV243166364049735680
p6003
aV232855397487218688
p6004
aV253672625832857602
p6005
aV250712042787459072
p6006
aV243795908121210880
p6007
aV227916759733256193
p6008
aV229598784655613953
p6009
aV258386172064169984
p6010
aV265230806438514688
p6011
aV260470841819684864
p6012
aV218348814094966786
p6013
aV253563276120707072
p6014
aV246973613507481600
p6015
aV262267446763876352
p6016
aV241265643893161984
p6017
aV260810072920309760
p6018
aV249792227717545984
p6019
aV229280281826308097
p6020
aV253375773954674688
p6021
aV229625183630135296
p6022
aV243876354871926784
p6023
aV230996880400711680
p6024
aV260561208086777856
p6025
aV261614481724035072
p6026
aV261457996415115264
p6027
aV265976310424285184
p6028
aV260570116784271361
p6029
aV258875064332718081
p6030
aV262541930422992896
p6031
aV265918248661422080
p6032
aV240197082059780096
p6033
aV251003802759622659
p6034
aV243907786994511873
p6035
aV257381535588708352
p6036
aV260544581895061504
p6037
aV265990810141609985
p6038
aV264431997051625472
p6039
aV260563091337646080
p6040
aV258408041169448960
p6041
aV253671619183144960
p6042
aV266029494203187201
p6043
aV244140029771927552
p6044
aV243180175892811776
p6045
aV252388501910351872
p6046
aV227425724166963203
p6047
aV219897573434064896
p6048
aV246364508287819776
p6049
aV265983222624690176
p6050
aV265866893624229888
p6051
aV261676574192070656
p6052
aV258377330479726593
p6053
aV252252468027727872
p6054
aV265909881045909504
p6055
aV266033847861387271
p6056
aV255454424871358465
p6057
aV244632675971907584
p6058
aV245744678211817472
p6059
aV261291650322685953
p6060
aV253852041359802368
p6061
aV244051894895513600
p6062
aV266031335511035904
p6063
aV238053184524926976
p6064
aV253688979411582977
p6065
aV234347131052384256
p6066
aV260005395706290176
p6067
aV253672600667041794
p6068
aV261585830441787392
p6069
aV244339674468995072
p6070
aV258412281602404352
p6071
aV229825704907382784
p6072
aV258386323084283905
p6073
aV265850930107408384
p6074
aV247844569109102593
p6075
aV261544042574278656
p6076
aV260782176600195072
p6077
aV233763028074627073
p6078
aV245708112273764354
p6079
aV247686959760285697
p6080
aV256586752725233664
p6081
aV262643680052129792
p6082
aV243794733695123457
p6083
aV266039912845942784
p6084
aV258671749632229376
p6085
aV262754023801753600
p6086
aV253688232812879872
p6087
aV265982190825918464
p6088
aV247042819510894592
p6089
aV255837243208527873
p6090
aV258381138899398656
p6091
aV228678806016258048
p6092
aV242998071812837377
p6093
aV266024188379295744
p6094
aV265606481875988481
p6095
aV246776921600446464
p6096
aV266033545896673283
p6097
aV265694524502859777
p6098
aV258388541862723586
p6099
aV218192685301907456
p6100
aV266009181176356864
p6101
aV265616602697965568
p6102
aV241495529492733954
p6103
aV253676065157963778
p6104
aV253675087893495809
p6105
aV219860395115024384
p6106
aV253679013753675776
p6107
aV261963208741515264
p6108
aV256582059307438082
p6109
aV243910425215913984
p6110
aV244050812748324864
p6111
aV229223939711328258
p6112
aV253665948475727875
p6113
aV235175418003615746
p6114
aV265824791196491777
p6115
aV265874766337036288
p6116
aV235841230238527489
p6117
aV227948191830654976
p6118
aV266032346317328387
p6119
aV249220145648648194
p6120
aV232510885736890369
p6121
aV235498333299417088
p6122
aV260557043168055296
p6123
aV260519575425273856
p6124
aV260422640878104577
p6125
aV263848141558788096
p6126
aV258750787109392385
p6127
aV265868168675856384
p6128
aV243367317361278976
p6129
aV245373562028953600
p6130
aV253670847439585280
p6131
aV258393386271268867
p6132
aV257908772180205570
p6133
aV250071945876484096
p6134
aV258412310987673600
p6135
aV253664950235574273
p6136
aV264206276370767872
p6137
aV262236652196466689
p6138
aV258397295345823745
p6139
aV235386613822259200
p6140
aV242702960562413568
p6141
aV247705938985902080
p6142
aV265524466430382081
p6143
aV265598978261913600
p6144
aV243899226415841280
p6145
aV240618987078172672
p6146
aV263666482033090560
p6147
aV264049333912092672
p6148
aV266031616508432385
p6149
aV265858874085634048
p6150
aV260489200300863488
p6151
aV248028527088254978
p6152
aV258399262478581762
p6153
aV265872237154947072
p6154
aV228576079147839489
p6155
aV260556313367556096
p6156
aV248932881936826369
p6157
aV233171190825500674
p6158
aV258377376612892672
p6159
aV260573744882393090
p6160
aV243895610900623361
p6161
aV265974330712788992
p6162
aV252547231129956352
p6163
aV255432199241871360
p6164
aV258372788061106176
p6165
aV260567168217923585
p6166
aV255488059007725568
p6167
aV253686429266370560
p6168
a.